(igraph
Node
p0
(dp1
S'puck'
p2
I-1
sS'radius'
p3
I10
sS'localize'
p4
I0
sS'Y'
p5
I-10
sS'X'
p6
I-10
sS'theta'
p7
I361
sb.(igraph
Node
p0
(dp1
S'puck'
p2
I-1
sS'radius'
p3
I10
sS'localize'
p4
I0
sS'Y'
p5
I236
sS'X'
p6
I613
sS'theta'
p7
I361
sb.(igraph
Node
p0
(dp1
S'puck'
p2
I-1
sS'radius'
p3
I10
sS'localize'
p4
I0
sS'Y'
p5
I322
sS'X'
p6
I477
sS'theta'
p7
I361
sb.(igraph
Node
p0
(dp1
S'puck'
p2
I-1
sS'radius'
p3
I10
sS'localize'
p4
I0
sS'Y'
p5
I487
sS'X'
p6
I612
sS'theta'
p7
I361
sb.(igraph
Node
p0
(dp1
S'puck'
p2
I-1
sS'radius'
p3
I10
sS'localize'
p4
I0
sS'Y'
p5
I337
sS'X'
p6
I702
sS'theta'
p7
I361
sb.(igraph
Node
p0
(dp1
S'puck'
p2
I-1
sS'radius'
p3
I10
sS'localize'
p4
I0
sS'Y'
p5
I378
sS'X'
p6
I597
sS'theta'
p7
I361
sb.(igraph
Node
p0
(dp1
S'puck'
p2
I-1
sS'radius'
p3
I10
sS'localize'
p4
I0
sS'Y'
p5
I609
sS'X'
p6
I607
sS'theta'
p7
I361
sb.(igraph
Node
p0
(dp1
S'puck'
p2
I-1
sS'radius'
p3
I10
sS'localize'
p4
I0
sS'Y'
p5
I713
sS'X'
p6
I534
sS'theta'
p7
I361
sb.