(igraph
Graph
p0
(dp1
S'nodes'
p2
(lp3
(igraph
Node
p4
(dp5
S'puck'
p6
I-1
sS'radius'
p7
I10
sS'localize'
p8
I0
sS'Y'
p9
I-1000
sS'X'
p10
I-1000
sS'theta'
p11
I361
sba(igraph
Node
p12
(dp13
g6
I-1
sg7
I10
sg8
I0
sg9
I477
sg10
I402
sg11
I361
sba(igraph
Node
p14
(dp15
g6
I-1
sg7
I10
sg8
I0
sg9
I487
sg10
I547
sg11
I361
sba(igraph
Node
p16
(dp17
g6
I-1
sg7
I10
sg8
I0
sg9
I439
sg10
I719
sg11
I361
sba(igraph
Node
p18
(dp19
g6
I-1
sg7
I10
sg8
I0
sg9
I264
sg10
I801
sg11
I361
sba(igraph
Node
p20
(dp21
g6
I-1
sg7
I10
sg8
I0
sg9
I137
sg10
I817
sg11
I361
sba(igraph
Node
p22
(dp23
g6
I-1
sg7
I10
sg8
I0
sg9
I92
sg10
I342
sg11
I361
sba(igraph
Node
p24
(dp25
g6
I-1
sg7
I10
sg8
I0
sg9
I190
sg10
I339
sg11
I361
sba(igraph
Node
p26
(dp27
g6
I-1
sg7
I10
sg8
I0
sg9
I203
sg10
I382
sg11
I361
sba(igraph
Node
p28
(dp29
g6
I-1
sg7
I10
sg8
I0
sg9
I152
sg10
I416
sg11
I361
sba(igraph
Node
p30
(dp31
g6
I-1
sg7
I10
sg8
I0
sg9
I96
sg10
I394
sg11
I361
sba(igraph
Node
p32
(dp33
g6
I-1
sg7
I10
sg8
I0
sg9
I107
sg10
I632
sg11
I361
sba(igraph
Node
p34
(dp35
g6
I-1
sg7
I10
sg8
I0
sg9
I222
sg10
I655
sg11
I361
sba(igraph
Node
p36
(dp37
g6
I-1
sg7
I10
sg8
I0
sg9
I147
sg10
I660
sg11
I361
sba(igraph
Node
p38
(dp39
g6
I-1
sg7
I10
sg8
I0
sg9
I167
sg10
I589
sg11
I361
sba(igraph
Node
p40
(dp41
g6
I-1
sg7
I10
sg8
I0
sg9
I165
sg10
I122
sg11
I361
sba(igraph
Node
p42
(dp43
g6
I-1
sg7
I100
sg8
I0
sg9
I343
sg10
I212
sg11
I361
sbasS'links'
p44
(lp45
(igraph
Link
p46
(dp47
S'log'
p48
I0
sS'directional'
p49
I0
sS'length'
p50
F73.81734213584231
sS'node1'
p51
g32
sg11
I0
sS'node2'
p52
g38
sba(igraph
Link
p53
(dp54
g48
I0
sg49
I0
sg50
F85.9127464349732
sg51
g38
sg11
I0
sg52
g34
sba(igraph
Link
p55
(dp56
g48
I0
sg49
I0
sg50
F75.16648189186454
sg51
g34
sg11
I0
sg52
g36
sba(igraph
Link
p57
(dp58
g48
I0
sg49
I0
sg50
F48.82622246293481
sg51
g36
sg11
I0
sg52
g32
sba(igraph
Link
p59
(dp60
g48
I0
sg49
I0
sg50
F128.00390619039717
sg51
g20
sg11
I0
sg52
g18
sba(igraph
Link
p61
(dp62
g48
I0
sg49
I0
sg50
F193.25889371514057
sg51
g18
sg11
I0
sg52
g16
sba(igraph
Link
p63
(dp64
g48
I0
sg49
I0
sg50
F178.5721142843977
sg51
g16
sg11
I0
sg52
g14
sba(igraph
Link
p65
(dp66
g48
I0
sg49
I0
sg50
F145.34441853748632
sg51
g14
sg11
I0
sg52
g12
sba(igraph
Link
p67
(dp68
g48
I0
sg49
I0
sg50
F98.04590761474952
sg51
g22
sg11
I0
sg52
g24
sba(igraph
Link
p69
(dp70
g48
I0
sg49
I0
sg50
F44.9221548904324
sg51
g24
sg11
I0
sg52
g26
sba(igraph
Link
p71
(dp72
g48
I0
sg49
I0
sg50
F61.29437168288782
sg51
g26
sg11
I0
sg52
g28
sba(igraph
Link
p73
(dp74
g48
I0
sg49
I0
sg50
F60.166435825965294
sg51
g28
sg11
I0
sg52
g30
sba(igraph
Link
p75
(dp76
g48
I0
sg49
I0
sg50
F52.15361924162119
sg51
g30
sg11
I0
sg52
g22
sba(igraph
Link
p77
(dp78
g48
I0
sg49
I0
sg50
F199.45926902503177
sg51
g42
sg11
I0
sg52
g40
sba(igraph
Link
p79
(dp80
g48
I0
sg49
I0
sg50
F232.4994623649698
sg51
g42
sg11
I0
sg52
g12
sbasb.