(igraph
Graph
p0
(dp1
S'nodes'
p2
(lp3
(igraph
Node
p4
(dp5
S'puck'
p6
I-1
sS'radius'
p7
I10
sS'localize'
p8
I0
sS'Y'
p9
I-1000
sS'X'
p10
I-1000
sS'theta'
p11
I361
sba(igraph
Node
p12
(dp13
g6
I-1
sg7
I10
sg8
I0
sg9
I-1000
sg10
I-1000
sg11
I361
sba(igraph
Node
p14
(dp15
g6
I-1
sg7
I10
sg8
I0
sg9
I-1000
sg10
I-1000
sg11
I361
sba(igraph
Node
p16
(dp17
g6
I-1
sg7
I10
sg8
I0
sg9
I-1000
sg10
I-1000
sg11
I361
sba(igraph
Node
p18
(dp19
g6
I-1
sg7
I10
sg8
I0
sg9
I-1000
sg10
I-1000
sg11
I361
sba(igraph
Node
p20
(dp21
g6
I5
sg7
I8
sg8
I0
sg9
I261
sg10
I673
sg11
I0
sba(igraph
Node
p22
(dp23
g6
I-1
sg7
I10
sg8
I0
sg9
I134
sg10
I504
sg11
I361
sba(igraph
Node
p24
(dp25
g6
I-1
sg7
I10
sg8
I0
sg9
I430
sg10
I231
sg11
I361
sbasS'links'
p26
(lp27
(igraph
Link
p28
(dp29
S'log'
p30
I0
sS'directional'
p31
I0
sS'length'
p32
F123.81033882515628
sS'node1'
p33
g24
sg11
I0
sS'node2'
p34
g22
sba(igraph
Link
p35
(dp36
g30
I0
sg31
I0
sg32
F164.0762018087937
sg33
g22
sg11
I0
sg34
g20
sbasb.