(igraph
Graph
p0
(dp1
S'nodes'
p2
(lp3
(igraph
Node
p4
(dp5
S'puck'
p6
I-1
sS'radius'
p7
I10
sS'localize'
p8
I0
sS'Y'
p9
I-1000
sS'X'
p10
I-1000
sS'theta'
p11
I361
sba(igraph
Node
p12
(dp13
g6
I-1
sg7
I10
sg8
I0
sg9
I202
sg10
I479
sg11
I361
sba(igraph
Node
p14
(dp15
g6
I-1
sg7
I10
sg8
I0
sg9
I214
sg10
I515
sg11
I361
sba(igraph
Node
p16
(dp17
g6
I-1
sg7
I10
sg8
I0
sg9
I395
sg10
I546
sg11
I361
sba(igraph
Node
p18
(dp19
g6
I-1
sg7
I10
sg8
I0
sg9
I150
sg10
I586
sg11
I361
sba(igraph
Node
p20
(dp21
g6
I-1
sg7
I10
sg8
I0
sg9
I-1000
sg10
I-1000
sg11
I361
sba(igraph
Node
p22
(dp23
g6
I-1
sg7
I10
sg8
I0
sg9
I287
sg10
I626
sg11
I361
sba(igraph
Node
p24
(dp25
g6
I-1
sg7
I10
sg8
I0
sg9
I305
sg10
I531
sg11
I361
sbasS'links'
p26
(lp27
(igraph
Link
p28
(dp29
S'blue'
p30
I10
sS'log'
p31
I0
sS'directional'
p32
I0
sS'length'
p33
S'37.94733192202055'
p34
sS'green'
p35
I10
sS'red'
p36
I10
sS'node1'
p37
g12
sg11
I0
sS'node2'
p38
g14
sS'logOffset'
p39
I0
sba(igraph
Link
p40
(dp41
g30
I10
sg31
I0
sg32
I0
sg33
S'183.63550854886424'
p42
sg35
I10
sg36
I10
sg37
g14
sg11
I0
sg38
g16
sg39
I0
sbasb.