(igraph
Graph
p0
(dp1
S'nodes'
p2
(lp3
(igraph
Node
p4
(dp5
S'puck'
p6
I-1
sS'radius'
p7
I10
sS'localize'
p8
I0
sS'Y'
p9
I-1000
sS'X'
p10
I-1000
sS'theta'
p11
I361
sba(igraph
Node
p12
(dp13
g6
I2
sg7
I5
sg8
I1
sg9
I160
sg10
I547
sg11
I361
sba(igraph
Node
p14
(dp15
g6
I-1
sg7
I10
sg8
I0
sg9
I-1000
sg10
I-1000
sg11
I361
sba(igraph
Node
p16
(dp17
g6
I-1
sg7
I10
sg8
I0
sg9
I-1000
sg10
I-1000
sg11
I361
sba(igraph
Node
p18
(dp19
g6
I-1
sg7
I10
sg8
I0
sg9
I262
sg10
I361
sg11
I361
sba(igraph
Node
p20
(dp21
g6
I-1
sg7
I10
sg8
I0
sg9
I-1000
sg10
I-1000
sg11
I361
sba(igraph
Node
p22
(dp23
g6
I-1
sg7
I10
sg8
I0
sg9
I-1000
sg10
I-1000
sg11
I361
sba(igraph
Node
p24
(dp25
g6
I-1
sg7
I10
sg8
I0
sg9
I290
sg10
I564
sg11
I361
sba(igraph
Node
p26
(dp27
g6
I-1
sg7
I10
sg8
I0
sg9
I432
sg10
I547
sg11
I361
sba(igraph
Node
p28
(dp29
g6
I-1
sg7
I10
sg8
I0
sg9
I339
sg10
I499
sg11
I361
sbasS'links'
p30
(lp31
(igraph
Link
p32
(dp33
S'log'
p34
I0
sS'directional'
p35
I0
sS'length'
p36
F154.0
sS'node1'
p37
g18
sg11
I0
sS'node2'
p38
g12
sba(igraph
Link
p39
(dp40
g34
I0
sg35
I0
sg36
F131.10682667199293
sg37
g12
sg11
I0
sg38
g24
sba(igraph
Link
p41
(dp42
g34
I0
sg35
I0
sg36
F204.92193635626225
sg37
g24
sg11
I0
sg38
g18
sba(igraph
Link
p43
(dp44
g34
I0
sg35
I0
sg36
F98.71676655968834
sg37
g26
sg11
I0
sg38
g24
sba(igraph
Link
p45
(dp46
g34
I0
sg35
I0
sg36
F156.236999459155
sg37
g18
sg11
I0
sg38
g26
sba(igraph
Link
p47
(dp48
g34
I0
sg35
I0
sg36
F81.40024569987489
sg37
g28
sg11
I0
sg38
g24
sbasb.