(igraph
Graph
p0
(dp1
S'nodes'
p2
(lp3
(igraph
Node
p4
(dp5
S'puck'
p6
I-1
sS'radius'
p7
I10
sS'localize'
p8
I0
sS'Y'
p9
I-1000
sS'X'
p10
I-1000
sS'theta'
p11
I361
sba(igraph
Node
p12
(dp13
g6
I-1
sg7
I10
sg8
I0
sg9
I155
sg10
I320
sg11
I361
sba(igraph
Node
p14
(dp15
g6
I-1
sg7
I10
sg8
I0
sg9
I240
sg10
I250
sg11
I361
sba(igraph
Node
p16
(dp17
g6
I-1
sg7
I10
sg8
I0
sg9
I95
sg10
I666
sg11
I361
sba(igraph
Node
p18
(dp19
g6
I-1
sg7
I10
sg8
I0
sg9
I308
sg10
I359
sg11
I361
sba(igraph
Node
p20
(dp21
g6
I-1
sg7
I10
sg8
I0
sg9
I376
sg10
I202
sg11
I361
sba(igraph
Node
p22
(dp23
g6
I-1
sg7
I10
sg8
I0
sg9
I241
sg10
I612
sg11
I361
sba(igraph
Node
p24
(dp25
g6
I-1
sg7
I10
sg8
I0
sg9
I189
sg10
I689
sg11
I361
sba(igraph
Node
p26
(dp27
g6
I-1
sg7
I10
sg8
I0
sg9
I356
sg10
I349
sg11
I361
sba(igraph
Node
p28
(dp29
g6
I-1
sg7
I10
sg8
I0
sg9
I612
sg10
I300
sg11
I361
sba(igraph
Node
p30
(dp31
g6
I-1
sg7
I10
sg8
I0
sg9
I378
sg10
I687
sg11
I361
sba(igraph
Node
p32
(dp33
g6
I-1
sg7
I10
sg8
I0
sg9
I546
sg10
I687
sg11
I361
sba(igraph
Node
p34
(dp35
g6
I4
sg7
I10
sg8
I0
sg9
I573
sg10
I69
sg11
I361
sba(igraph
Node
p36
(dp37
g6
I9
sg7
I10
sg8
I0
sg9
I476
sg10
I720
sg11
I361
sba(igraph
Node
p38
(dp39
g6
I-1
sg7
I10
sg8
I0
sg9
I-1000
sg10
I-1000
sg11
I361
sba(igraph
Node
p40
(dp41
g6
I-1
sg7
I10
sg8
I0
sg9
I267
sg10
I687
sg11
I361
sbasS'links'
p42
(lp43
(igraph
Link
p44
(dp45
S'log'
p46
I0
sS'directional'
p47
I0
sS'length'
p48
F157.89236840328923
sS'node1'
p49
g12
sg11
I0
sS'node2'
p50
g18
sS'logOffset'
p51
I0
sba(igraph
Link
p52
(dp53
g46
I0
sg47
I0
sg48
F123.17873193047572
sg49
g18
sg11
I0
sg50
g20
sg51
I0
sba(igraph
Link
p54
(dp55
g46
I0
sg47
I0
sg48
F313.68296096536704
sg49
g20
sg11
I0
sg50
g26
sg51
I0
sba(igraph
Link
p56
(dp57
g46
I0
sg47
I0
sg48
F260.64727123068064
sg49
g26
sg11
I0
sg50
g28
sg51
I0
sba(igraph
Link
p58
(dp59
g46
I0
sg47
I0
sg48
F392.58756984907205
sg49
g28
sg11
I0
sg50
g32
sg51
I0
sba(igraph
Link
p60
(dp61
g46
I0
sg47
I0
sg48
F574.6738205277843
sg49
g28
sg11
I0
sg50
g24
sg51
I0
sba(igraph
Link
p62
(dp63
g46
I0
sg47
I0
sg48
F521.6684771001599
sg49
g24
sg11
I0
sg50
g20
sg51
I0
sba(igraph
Link
p64
(dp65
g46
I0
sg47
I0
sg48
F542.4546063957795
sg49
g20
sg11
I0
sg50
g16
sg51
I0
sba(igraph
Link
p66
(dp67
g46
I0
sg47
I0
sg48
F351.1637794534054
sg49
g16
sg11
I0
sg50
g12
sg51
I0
sba(igraph
Link
p68
(dp69
g46
I0
sg47
I0
sg48
F128.47178678604888
sg49
g14
sg11
I0
sg50
g18
sg51
I0
sba(igraph
Link
p70
(dp71
g46
I0
sg47
I0
sg48
F108.57716150277646
sg49
g18
sg11
I0
sg50
g22
sg51
I0
sba(igraph
Link
p72
(dp73
g46
I0
sg47
I0
sg48
F287.0435507026765
sg49
g22
sg11
I0
sg50
g26
sg51
I0
sba(igraph
Link
p74
(dp75
g46
I0
sg47
I0
sg48
F288.3210016630769
sg49
g26
sg11
I0
sg50
g30
sg51
I0
sba(igraph
Link
p76
(dp77
g46
I0
sg47
I0
sg48
F168.0
sg49
g30
sg11
I0
sg50
g32
sg51
I0
sba(igraph
Link
p78
(dp79
g46
I0
sg47
I0
sg48
F354.24426600863984
sg49
g34
sg11
I0
sg50
g26
sg51
I0
sba(igraph
Link
p80
(dp81
g46
I0
sg47
I0
sg48
F441.4702707997448
sg49
g28
sg11
I0
sg50
g36
sg51
I0
sba(igraph
Link
p82
(dp83
g46
I0
sg47
I0
sg48
F77.3886296557834
sg49
g32
sg11
I0
sg50
g36
sg51
I0
sba(igraph
Link
p84
(dp85
g46
I0
sg47
I0
sg48
F103.40696301506975
sg49
g30
sg11
I0
sg50
g36
sg51
I0
sba(igraph
Link
p86
(dp87
g46
I0
sg47
I0
sg48
F189.01058171435798
sg49
g30
sg11
I0
sg50
g24
sg51
I0
sba(igraph
Link
p88
(dp89
g46
I0
sg47
I0
sg48
F329.24762717444145
sg49
g24
sg11
I0
sg50
g22
sg51
I0
sba(igraph
Link
p90
(dp91
g46
I0
sg47
I0
sg48
F155.66630977832037
sg49
g22
sg11
I0
sg50
g16
sg51
I0
sba(igraph
Link
p92
(dp93
g46
I0
sg47
I0
sg48
F440.5462518283409
sg49
g16
sg11
I0
sg50
g14
sg51
I0
sbasb.