(igraph
Graph
p0
(dp1
S'nodes'
p2
(lp3
(igraph
Node
p4
(dp5
S'puck'
p6
I-1
sS'radius'
p7
I10
sS'localize'
p8
I0
sS'Y'
p9
I-1000
sS'X'
p10
I-1000
sS'theta'
p11
I361
sba(igraph
Node
p12
(dp13
g6
I-1
sg7
I10
sg8
I0
sg9
I281
sg10
I361
sg11
I361
sba(igraph
Node
p14
(dp15
g6
I-1
sg7
I10
sg8
I0
sg9
I493
sg10
I217
sg11
I361
sba(igraph
Node
p16
(dp17
g6
I-1
sg7
I10
sg8
I0
sg9
I198
sg10
I737
sg11
I361
sba(igraph
Node
p18
(dp19
g6
I5
sg7
I10
sg8
I0
sg9
I548
sg10
I508
sg11
I361
sba(igraph
Node
p20
(dp21
g6
I-1
sg7
I10
sg8
I0
sg9
I395
sg10
I418
sg11
I361
sbasS'links'
p22
(lp23
(igraph
Link
p24
(dp25
S'blue'
p26
I87
sS'node2h'
p27
S'left'
p28
sS'node2direction'
p29
F91.09469059185304
sS'log'
p30
I0
sS'node1v'
p31
S'top'
p32
sS'node2v'
p33
S'bottom'
p34
sS'length'
p35
F178.24140933015536
sS'green'
p36
I128
sS'red'
p37
I0
sS'node1direction'
p38
F-88.90530940814698
sS'node1'
p39
g12
sS'node1h'
p40
S'right'
p41
sS'node2'
p42
g14
sS'logOffset'
p43
I0
sba(igraph
Link
p44
(dp45
g26
I170
sg27
g41
sg29
F125.60176700407398
sg30
I0
sg31
g32
sg33
g34
sg35
F196.93907687404246
sg36
I94
sg37
I69
sg38
F-54.39823299592602
sg39
g12
sg40
g28
sg42
g16
sg43
I0
sba(igraph
Link
p46
(dp47
g26
I198
sg27
g41
sg29
F174.19327309446842
sg30
I0
sg31
g34
sg33
g32
sg35
F372.98927598524864
sg36
I74
sg37
I14
sg38
F-5.806726905531577
sg39
g14
sg40
g28
sg42
g16
sg43
I0
sba(igraph
Link
p48
(dp49
g26
I58
sg27
g28
sg29
F122.66091272167381
sg30
I0
sg31
g32
sg33
g34
sg35
F418.2594888343838
sg36
I127
sg37
I18
sg38
F-57.33908727832619
sg39
g16
sg40
g41
sg42
g18
sg43
I0
sba(igraph
Link
p50
(dp51
g26
I139
sg27
g41
sg29
F151.82140989004085
sg30
I0
sg31
g32
sg33
g34
sg35
F296.1519880061588
sg36
I254
sg37
I153
sg38
F-28.178590109959174
sg39
g14
sg40
g28
sg42
g18
sg43
I0
sba(igraph
Link
p52
(dp53
g26
I74
sg27
g28
sg29
F60.58440116690445
sg30
I0
sg31
g32
sg33
g34
sg35
F215.8240023723033
sg36
I38
sg37
I102
sg38
F-119.41559883309556
sg39
g12
sg40
g41
sg42
g20
sg43
I0
sba(igraph
Link
p54
(dp55
g26
I225
sg27
g28
sg29
F-172.6262336386698
sg30
I0
sg31
g32
sg33
g34
sg35
F223.61797781037197
sg36
I224
sg37
I146
sg38
F7.373766361330215
sg39
g20
sg40
g41
sg42
g14
sg43
I0
sba(igraph
Link
p56
(dp57
g26
I145
sg27
g41
sg29
F162.65887110502734
sg30
I0
sg31
g32
sg33
g34
sg35
F177.50774630984418
sg36
I43
sg37
I158
sg38
F-17.34112889497265
sg39
g20
sg40
g28
sg42
g18
sg43
I0
sbasb.