(igraph
Graph
p0
(dp1
S'nodes'
p2
(lp3
(igraph
Node
p4
(dp5
S'puck'
p6
I-1
sS'radius'
p7
I10
sS'localize'
p8
I0
sS'Y'
p9
I-1000
sS'X'
p10
I-1000
sS'theta'
p11
I361
sba(igraph
Node
p12
(dp13
g6
I1
sg7
I10
sg8
I0
sg9
I205
sg10
I81
sg11
I70
sba(igraph
Node
p14
(dp15
g6
I9
sg7
I10
sg8
I0
sg9
I499
sg10
I131
sg11
I-95
sba(igraph
Node
p16
(dp17
g6
I13
sg7
I10
sg8
I0
sg9
I724
sg10
I159
sg11
I-109
sba(igraph
Node
p18
(dp19
g6
I-1
sg7
I10
sg8
I0
sg9
I644
sg10
I127
sg11
I361
sba(igraph
Node
p20
(dp21
g6
I6
sg7
I10
sg8
I0
sg9
I356
sg10
I252
sg11
I0
sba(igraph
Node
p22
(dp23
g6
I5
sg7
I10
sg8
I0
sg9
I361
sg10
I226
sg11
I180
sba(igraph
Node
p24
(dp25
g6
I-1
sg7
I10
sg8
I0
sg9
I364
sg10
I334
sg11
I361
sba(igraph
Node
p26
(dp27
g6
I-1
sg7
I10
sg8
I0
sg9
I267
sg10
I349
sg11
I361
sba(igraph
Node
p28
(dp29
g6
I2
sg7
I10
sg8
I0
sg9
I216
sg10
I341
sg11
I80
sba(igraph
Node
p30
(dp31
g6
I10
sg7
I10
sg8
I0
sg9
I493
sg10
I354
sg11
I-87
sba(igraph
Node
p32
(dp33
g6
I-1
sg7
I10
sg8
I0
sg9
I-1000
sg10
I-1000
sg11
I361
sba(igraph
Node
p34
(dp35
g6
I-1
sg7
I10
sg8
I0
sg9
I630
sg10
I375
sg11
I361
sba(igraph
Node
p36
(dp37
g6
I11
sg7
I10
sg8
I0
sg9
I674
sg10
I518
sg11
I45
sba(igraph
Node
p38
(dp39
g6
I15
sg7
I10
sg8
I0
sg9
I775
sg10
I524
sg11
I-40
sba(igraph
Node
p40
(dp41
g6
I-1
sg7
I10
sg8
I0
sg9
I709
sg10
I424
sg11
I361
sba(igraph
Node
p42
(dp43
g6
I-1
sg7
I10
sg8
I0
sg9
I594
sg10
I585
sg11
I361
sba(igraph
Node
p44
(dp45
g6
I7
sg7
I10
sg8
I0
sg9
I480
sg10
I593
sg11
I90
sba(igraph
Node
p46
(dp47
g6
I-1
sg7
I10
sg8
I0
sg9
I297
sg10
I759
sg11
I361
sbasS'pucks'
p48
(lp49
sS'links'
p50
(lp51
(igraph
Link
p52
(dp53
S'blue'
p54
I105
sS'node2direction'
p55
F-91.58017247280002
sS'log'
p56
I0
sS'node1v'
p57
S'bottom'
p58
sS'node2v'
p59
S'top'
p60
sS'green'
p61
I150
sS'length'
p62
F145.0551619212498
sS'node2h'
p63
S'right'
p64
sS'logOffset'
p65
I0
sS'node1'
p66
g18
sS'node1h'
p67
S'left'
p68
sS'node2'
p69
g14
sS'node1direction'
p70
F88.41982752719998
sS'red'
p71
I173
sba(igraph
Link
p72
(dp73
g54
I239
sg55
S'-109'
p74
sg56
I0
sg57
g60
sg59
g58
sg61
I6
sg62
F86.16263691415206
sg63
g64
sg65
I0
sg66
g18
sg67
g68
sg69
g16
sg70
S'-109'
p75
sg71
I66
sba(igraph
Link
p76
(dp77
g54
I137
sg55
F132.90706569471186
sg56
I0
sg57
g60
sg59
g58
sg61
I80
sg62
F212.9812198293549
sg63
g64
sg65
I0
sg66
g12
sg67
g68
sg69
g22
sg70
F-47.09293430528815
sg71
I233
sba(igraph
Link
p78
(dp79
g54
I124
sg55
F-169.11447294534128
sg56
I0
sg57
g58
sg59
g60
sg61
I147
sg62
F26.476404589747453
sg63
g64
sg65
I0
sg66
g22
sg67
g68
sg69
g20
sg70
F10.885527054658738
sg71
I54
sba(igraph
Link
p80
(dp81
g54
I192
sg55
F55.45625059223088
sg56
I0
sg57
g60
sg59
g58
sg61
I161
sg62
F167.53805537847214
sg63
g68
sg65
I0
sg66
g22
sg67
g64
sg69
g14
sg70
F-124.54374940776913
sg71
I57
sba(igraph
Link
p82
(dp83
g54
I142
sg55
S'90'
p84
sg56
I0
sg57
g60
sg59
g58
sg61
I169
sg62
F51.62363799656123
sg63
g64
sg65
I0
sg66
g28
sg67
g68
sg69
g26
sg70
S'90'
p85
sg71
I217
sba(igraph
Link
p86
(dp87
g54
I97
sg55
S'90'
p88
sg56
I0
sg57
g60
sg59
g58
sg61
I255
sg62
F98.15294188153506
sg63
g68
sg65
I0
sg66
g26
sg67
g64
sg69
g24
sg70
S'90'
p89
sg71
I131
sba(igraph
Link
p90
(dp91
g54
I117
sg55
F-5.572197803963795
sg56
I0
sg57
g58
sg59
g60
sg61
I29
sg62
F82.38931969618392
sg63
g68
sg65
I0
sg66
g24
sg67
g64
sg69
g20
sg70
F174.4278021960362
sg71
I21
sba(igraph
Link
p92
(dp93
g54
I177
sg55
S'98'
p94
sg56
I0
sg57
g60
sg59
g58
sg61
I96
sg62
F130.54118124178285
sg63
g64
sg65
I0
sg66
g24
sg67
g68
sg69
g30
sg70
S'-81'
p95
sg71
I95
sba(igraph
Link
p96
(dp97
g54
I76
sg63
g64
sg55
F121.80938928779315
sg56
I0
sg57
g60
sg59
g58
sg62
F92.96235797353678
sg61
I150
sg71
I2
sg70
F-58.190610712206855
sg66
g34
sg67
g68
sg69
g40
sg65
I0
sba(igraph
Link
p98
(dp99
g54
I186
sg63
g64
sg55
S'45'
p100
sg56
I0
sg57
g58
sg59
g60
sg62
F100.3045362882457
sg61
I255
sg71
I131
sg70
S'20.422333024723436'
p101
sg66
g40
sg67
g68
sg69
g36
sg65
I0
sba(igraph
Link
p102
(dp103
g54
I213
sg63
g64
sg55
F146.57518881739622
sg56
I0
sg57
g60
sg59
g58
sg62
F119.81652640600127
sg61
I125
sg71
I220
sg70
F-33.424811182603804
sg66
g40
sg67
g68
sg69
g38
sg65
I0
sba(igraph
Link
p104
(dp105
g54
I241
sg63
g68
sg55
F-81.28526712513884
sg56
I0
sg57
g58
sg59
g60
sg62
F138.6001443000692
sg61
I36
sg71
I224
sg70
F98.71473287486116
sg66
g34
sg67
g64
sg69
g30
sg65
I0
sba(igraph
Link
p106
(dp107
g54
I185
sg63
g68
sg55
S'50.053826050064366'
p108
sg56
I0
sg57
g60
sg59
g58
sg62
S'104.35037134576953'
p109
sg61
I106
sg71
I57
sg70
S'45'
p110
sg66
g42
sg67
g64
sg69
g36
sg65
I0
sba(igraph
Link
p111
(dp112
g54
I37
sg63
g68
sg55
S'85.19651424093092'
p113
sg56
I0
sg57
g60
sg59
g58
sg62
S'114.28035701729323'
p114
sg61
I28
sg71
I77
sg70
S'90'
p115
sg66
g44
sg67
g64
sg69
g42
sg65
I0
sba(igraph
Link
p116
(dp117
g54
I27
sg63
g68
sg55
F47.78870767984421
sg56
I0
sg57
g60
sg59
g58
sg62
F247.07286374670937
sg61
I205
sg71
I150
sg70
F-132.2112923201558
sg66
g46
sg67
g64
sg69
g44
sg65
I0
sbasb.