(igraph
Graph
p0
(dp1
S'nodes'
p2
(lp3
(igraph
Node
p4
(dp5
S'puck'
p6
I-1
sS'radius'
p7
I10
sS'localize'
p8
I0
sS'Y'
p9
I-1000
sS'X'
p10
I-1000
sS'theta'
p11
I361
sba(igraph
Node
p12
(dp13
g6
I-1
sg7
I10
sg8
I0
sg9
I-1000
sg10
I-1000
sg11
I361
sba(igraph
Node
p14
(dp15
g6
I5
sg7
I10
sg8
I0
sg9
I369
sg10
I216
sg11
I175
sba(igraph
Node
p16
(dp17
g6
I1
sg7
I8
sg8
I0
sg9
I202
sg10
I82
sg11
I75
sba(igraph
Node
p18
(dp19
g6
I5
sg7
I10
sg8
I0
sg9
I363
sg10
I260
sg11
I0
sba(igraph
Node
p20
(dp21
g6
I9
sg7
I10
sg8
I0
sg9
I503
sg10
I148
sg11
I-105
sba(igraph
Node
p22
(dp23
g6
I-1
sg7
I10
sg8
I0
sg9
I645
sg10
I132
sg11
I361
sba(igraph
Node
p24
(dp25
g6
I13
sg7
I10
sg8
I0
sg9
I726
sg10
I161
sg11
I-110
sba(igraph
Node
p26
(dp27
g6
I10
sg7
I10
sg8
I0
sg9
I505
sg10
I358
sg11
I-90
sba(igraph
Node
p28
(dp29
g6
I-1
sg7
I10
sg8
I0
sg9
I414
sg10
I326
sg11
I361
sba(igraph
Node
p30
(dp31
g6
I-1
sg7
I10
sg8
I0
sg9
I314
sg10
I334
sg11
I361
sba(igraph
Node
p32
(dp33
g6
I-1
sg7
I10
sg8
I0
sg9
I258
sg10
I341
sg11
I361
sba(igraph
Node
p34
(dp35
g6
I2
sg7
I10
sg8
I0
sg9
I220
sg10
I337
sg11
I70
sba(igraph
Node
p36
(dp37
g6
I-1
sg7
I10
sg8
I0
sg9
I-1000
sg10
I-1000
sg11
I361
sba(igraph
Node
p38
(dp39
g6
I-1
sg7
I10
sg8
I0
sg9
I560
sg10
I364
sg11
I361
sba(igraph
Node
p40
(dp41
g6
I-1
sg7
I10
sg8
I0
sg9
I611
sg10
I373
sg11
I361
sba(igraph
Node
p42
(dp43
g6
I-1
sg7
I10
sg8
I0
sg9
I683
sg10
I402
sg11
I361
sba(igraph
Node
p44
(dp45
g6
I11
sg7
I8
sg8
I0
sg9
I689
sg10
I531
sg11
I47
sba(igraph
Node
p46
(dp47
g6
I-1
sg7
I10
sg8
I0
sg9
I727
sg10
I480
sg11
I361
sba(igraph
Node
p48
(dp49
g6
I15
sg7
I10
sg8
I0
sg9
I782
sg10
I532
sg11
I-41
sba(igraph
Node
p50
(dp51
g6
I16
sg7
I10
sg8
I0
sg9
I847
sg10
I743
sg11
I4
sba(igraph
Node
p52
(dp53
g6
I-1
sg7
I10
sg8
I0
sg9
I-1000
sg10
I-1000
sg11
I361
sba(igraph
Node
p54
(dp55
g6
I-1
sg7
I10
sg8
I0
sg9
I816
sg10
I635
sg11
I361
sba(igraph
Node
p56
(dp57
g6
I-1
sg7
I10
sg8
I0
sg9
I590
sg10
I582
sg11
I361
sba(igraph
Node
p58
(dp59
g6
I7
sg7
I10
sg8
I0
sg9
I470
sg10
I594
sg11
I86
sba(igraph
Node
p60
(dp61
g6
I-1
sg7
I10
sg8
I0
sg9
I811
sg10
I851
sg11
I361
sba(igraph
Node
p62
(dp63
g6
I12
sg7
I10
sg8
I0
sg9
I699
sg10
I842
sg11
I90
sba(igraph
Node
p64
(dp65
g6
I-1
sg7
I10
sg8
I0
sg9
I642
sg10
I779
sg11
I361
sba(igraph
Node
p66
(dp67
g6
I8
sg7
I10
sg8
I0
sg9
I281
sg10
I765
sg11
I-46
sba(igraph
Node
p68
(dp69
g6
I4
sg7
I10
sg8
I0
sg9
I202
sg10
I802
sg11
I65
sba(igraph
Node
p70
(dp71
g6
I-1
sg7
I10
sg8
I0
sg9
I-1000
sg10
I-1000
sg11
I361
sbasS'links'
p72
(lp73
(igraph
Link
p74
(dp75
S'blue'
p76
I190
sS'node2direction'
p77
S'128'
p78
sS'log'
p79
I0
sS'node1v'
p80
S'top'
p81
sS'node2v'
p82
S'bottom'
p83
sS'green'
p84
I110
sS'length'
p85
F214.11445537375565
sS'node2h'
p86
S'right'
p87
sS'logOffset'
p88
I0
sS'node1'
p89
g16
sS'node1h'
p90
S'left'
p91
sS'node2'
p92
g14
sS'node1direction'
p93
S'-51'
p94
sS'red'
p95
I255
sba(igraph
Link
p96
(dp97
g76
I32
sg77
F-172.23483398157467
sg79
I0
sg80
g83
sg82
g81
sg84
I251
sg85
F44.40720662234904
sg86
g87
sg88
I0
sg89
g14
sg90
g91
sg92
g18
sg93
F7.765166018425333
sg95
I188
sba(igraph
Link
p98
(dp99
g76
I178
sg77
F-116.90609345593684
sg79
I0
sg80
g83
sg82
g81
sg84
I235
sg85
F150.2664300500947
sg86
g87
sg88
I0
sg89
g20
sg90
g91
sg92
g14
sg93
F63.09390654406316
sg95
I151
sba(igraph
Link
p100
(dp101
g76
I32
sg77
S'-110'
p102
sg79
I0
sg80
g81
sg82
g83
sg84
I91
sg85
F86.03487664894976
sg86
g87
sg88
I0
sg89
g22
sg90
g91
sg92
g24
sg93
S'-110'
p103
sg95
I230
sba(igraph
Link
p104
(dp105
g76
I58
sg77
F-96.42874774882986
sg79
I0
sg80
g83
sg82
g81
sg84
I42
sg85
F142.89856542317
sg86
g87
sg88
I0
sg89
g22
sg90
g91
sg92
g20
sg93
F83.57125225117015
sg95
I204
sba(igraph
Link
p106
(dp107
g76
I245
sg77
F142.30575953331083
sg79
I0
sg80
g81
sg82
g83
sg84
I4
sg85
F83.40863264674707
sg86
g87
sg88
I0
sg89
g18
sg90
g91
sg92
g28
sg93
F-37.69424046668917
sg95
I6
sba(igraph
Link
p108
(dp109
g76
I153
sg77
F110.03101268089773
sg79
I0
sg80
g81
sg82
g83
sg84
I72
sg85
F96.46242791885346
sg86
g87
sg88
I0
sg89
g28
sg90
g91
sg92
g26
sg93
F-69.96898731910227
sg95
I50
sba(igraph
Link
p110
(dp111
g76
I70
sg77
F-146.4889812021592
sg79
I0
sg80
g83
sg82
g81
sg84
I78
sg85
F88.75246475450697
sg86
g87
sg88
I0
sg89
g18
sg90
g91
sg92
g30
sg93
F33.5110187978408
sg95
I112
sba(igraph
Link
p112
(dp113
g76
I242
sg77
F82.8749836510982
sg79
I0
sg80
g81
sg82
g83
sg84
I17
sg85
F56.435804238089844
sg86
g91
sg88
I0
sg89
g32
sg90
g87
sg92
g30
sg93
F-97.1250163489018
sg95
I188
sba(igraph
Link
p114
(dp115
g76
I176
sg77
F99.58294472353258
sg79
I0
sg80
g81
sg82
g83
sg84
I129
sg85
F38.2099463490856
sg86
g87
sg88
I0
sg89
g34
sg90
g91
sg92
g32
sg93
F-80.41705527646744
sg95
I171
sba(igraph
Link
p116
(dp117
g76
I179
sg86
g87
sg77
F93.43363036245051
sg79
I0
sg80
g81
sg82
g83
sg85
F55.32630477449221
sg84
I125
sg88
I0
sg89
g26
sg90
g91
sg92
g38
sg93
F-86.56636963754949
sg95
I35
sba(igraph
Link
p118
(dp119
g76
I203
sg86
g87
sg77
F100.00797980144135
sg79
I0
sg80
g81
sg82
g83
sg85
F51.7880295048962
sg84
I72
sg88
I0
sg89
g38
sg90
g91
sg92
g40
sg93
F-79.99202019855866
sg95
I62
sba(igraph
Link
p120
(dp121
g76
I157
sg86
g87
sg77
F111.93848046770647
sg79
I0
sg80
g81
sg82
g83
sg85
F77.62087348130012
sg84
I244
sg88
I0
sg89
g40
sg90
g91
sg92
g42
sg93
F-68.06151953229354
sg95
I81
sba(igraph
Link
p122
(dp123
g76
I236
sg86
g87
sg77
F150.57254359681028
sg79
I0
sg80
g81
sg82
g83
sg85
F89.55445270895244
sg84
I20
sg88
I0
sg89
g42
sg90
g91
sg92
g46
sg93
F-29.427456403189737
sg95
I88
sba(igraph
Link
p124
(dp125
g76
I126
sg86
g91
sg77
F49.1446237411043
sg79
I0
sg80
g81
sg82
g83
sg85
F63.60031446463139
sg84
I33
sg88
I0
sg89
g44
sg90
g87
sg92
g46
sg93
F-130.85537625889572
sg95
I8
sba(igraph
Link
p126
(dp127
g76
I38
sg86
g87
sg77
F133.39399701071775
sg79
I0
sg80
g81
sg82
g83
sg85
F75.69015788066504
sg84
I89
sg88
I0
sg89
g46
sg90
g91
sg92
g48
sg93
F-46.606002989282246
sg95
I173
sba(igraph
Link
p128
(dp129
g76
I39
sg77
F161.7320937927589
sg79
I0
sg80
g81
sg82
g83
sg84
I120
sg85
F108.4665847162157
sg86
g87
sg88
I0
sg89
g48
sg90
g91
sg92
g54
sg93
F-18.26790620724112
sg95
I37
sba(igraph
Link
p130
(dp131
g76
I248
sg77
F163.98456039373434
sg79
I0
sg80
g81
sg82
g83
sg84
I14
sg85
F112.36102527122117
sg86
g87
sg88
I0
sg89
g54
sg90
g91
sg92
g50
sg93
F-16.015439606265677
sg95
I109
sba(igraph
Link
p132
(dp133
g76
I227
sg77
F-121.87959684702274
sg79
I0
sg80
g83
sg82
g81
sg84
I201
sg85
F111.36426715962352
sg86
g87
sg88
I0
sg89
g44
sg90
g91
sg92
g56
sg93
F58.12040315297727
sg95
I26
sba(igraph
Link
p134
(dp135
g76
I99
sg77
F84.28940686250037
sg79
I0
sg80
g81
sg82
g83
sg84
I153
sg85
F120.59850745345068
sg86
g91
sg88
I0
sg89
g58
sg90
g87
sg92
g56
sg93
F-95.71059313749964
sg95
I197
sba(igraph
Link
p136
(dp137
g76
I45
sg77
F-161.565051177078
sg79
I0
sg80
g83
sg82
g81
sg84
I132
sg85
F113.84199576606166
sg86
g87
sg88
I0
sg89
g50
sg90
g91
sg92
g60
sg93
F18.43494882292201
sg95
I62
sba(igraph
Link
p138
(dp139
g76
I27
sg77
F94.59425333126639
sg79
I0
sg80
g81
sg82
g83
sg84
I182
sg85
F112.36102527122117
sg86
g87
sg88
I0
sg89
g62
sg90
g91
sg92
g60
sg93
F-85.40574666873361
sg95
I9
sba(igraph
Link
p140
(dp141
g76
I160
sg77
F137.86240522611175
sg79
I0
sg80
g81
sg82
g83
sg84
I216
sg85
F84.95881355103776
sg86
g87
sg88
I0
sg89
g64
sg90
g91
sg92
g62
sg93
F-42.13759477388825
sg95
I26
sba(igraph
Link
p142
(dp143
g76
I141
sg77
F-132.13759477388825
sg79
I0
sg80
g83
sg82
g81
sg84
I96
sg85
F254.8764406531133
sg86
g87
sg88
I0
sg89
g58
sg90
g91
sg92
g66
sg93
F47.862405226111754
sg95
I169
sba(igraph
Link
p144
(dp145
g76
I148
sg77
F-115.09625046269215
sg79
I0
sg80
g83
sg82
g81
sg84
I192
sg85
F87.23531395025755
sg86
g87
sg88
I0
sg89
g66
sg90
g91
sg92
g68
sg93
F64.90374953730785
sg95
I206
sbasb.