(igraph
Graph
p0
(dp1
S'nodes'
p2
(lp3
(igraph
Node
p4
(dp5
S'puck'
p6
I-1
sS'radius'
p7
I10
sS'localize'
p8
I0
sS'Y'
p9
I-1000
sS'X'
p10
I-1000
sS'theta'
p11
I361
sba(igraph
Node
p12
(dp13
g6
I-1
sg7
I10
sg8
I0
sg9
I-1000
sg10
I-1000
sg11
I361
sba(igraph
Node
p14
(dp15
g6
I-1
sg7
I10
sg8
I0
sg9
I87
sg10
I93
sg11
I361
sba(igraph
Node
p16
(dp17
g6
I5
sg7
I10
sg8
I0
sg9
I348
sg10
I226
sg11
I180
sba(igraph
Node
p18
(dp19
g6
I10
sg7
I10
sg8
I0
sg9
I484
sg10
I376
sg11
I-95
sba(igraph
Node
p20
(dp21
g6
I-1
sg7
I10
sg8
I0
sg9
I543
sg10
I354
sg11
I361
sba(igraph
Node
p22
(dp23
g6
I-1
sg7
I10
sg8
I0
sg9
I622
sg10
I368
sg11
I361
sba(igraph
Node
p24
(dp25
g6
I-1
sg7
I10
sg8
I0
sg9
I675
sg10
I403
sg11
I361
sba(igraph
Node
p26
(dp27
g6
I-1
sg7
I10
sg8
I0
sg9
I293
sg10
I343
sg11
I361
sba(igraph
Node
p28
(dp29
g6
I-1
sg7
I10
sg8
I0
sg9
I-1000
sg10
I-1000
sg11
I361
sba(igraph
Node
p30
(dp31
g6
I-1
sg7
I10
sg8
I0
sg9
I-1000
sg10
I-1000
sg11
I361
sba(igraph
Node
p32
(dp33
g6
I-1
sg7
I10
sg8
I0
sg9
I-1000
sg10
I-1000
sg11
I361
sba(igraph
Node
p34
(dp35
g6
I-1
sg7
I10
sg8
I0
sg9
I-1000
sg10
I-1000
sg11
I361
sba(igraph
Node
p36
(dp37
g6
I2
sg7
I9
sg8
I0
sg9
I229
sg10
I347
sg11
I85
sba(igraph
Node
p38
(dp39
g6
I9
sg7
I10
sg8
I0
sg9
I499
sg10
I118
sg11
I-90
sba(igraph
Node
p40
(dp41
g6
I13
sg7
I8
sg8
I0
sg9
I721
sg10
I151
sg11
I-110
sba(igraph
Node
p42
(dp43
g6
I6
sg7
I10
sg8
I0
sg9
I358
sg10
I263
sg11
I0
sba(igraph
Node
p44
(dp45
g6
I-1
sg7
I10
sg8
I0
sg9
I410
sg10
I338
sg11
I361
sba(igraph
Node
p46
(dp47
g6
I-1
sg7
I10
sg8
I0
sg9
I-1000
sg10
I-1000
sg11
I361
sba(igraph
Node
p48
(dp49
g6
I-1
sg7
I10
sg8
I0
sg9
I-1000
sg10
I-1000
sg11
I361
sba(igraph
Node
p50
(dp51
g6
I1
sg7
I10
sg8
I0
sg9
I198
sg10
I96
sg11
I75
sba(igraph
Node
p52
(dp53
g6
I-1
sg7
I10
sg8
I0
sg9
I226
sg10
I81
sg11
I361
sba(igraph
Node
p54
(dp55
g6
I15
sg7
I10
sg8
I0
sg9
I772
sg10
I527
sg11
I-45
sba(igraph
Node
p56
(dp57
g6
I-1
sg7
I10
sg8
I0
sg9
I703
sg10
I498
sg11
I361
sba(igraph
Node
p58
(dp59
g6
I11
sg7
I8
sg8
I0
sg9
I655
sg10
I539
sg11
I45
sba(igraph
Node
p60
(dp61
g6
I-1
sg7
I10
sg8
I0
sg9
I700
sg10
I443
sg11
I361
sba(igraph
Node
p62
(dp63
g6
I-1
sg7
I10
sg8
I0
sg9
I-1000
sg10
I-1000
sg11
I361
sba(igraph
Node
p64
(dp65
g6
I-1
sg7
I10
sg8
I0
sg9
I-1000
sg10
I-1000
sg11
I361
sba(igraph
Node
p66
(dp67
g6
I-1
sg7
I10
sg8
I0
sg9
I802
sg10
I599
sg11
I361
sba(igraph
Node
p68
(dp69
g6
I16
sg7
I10
sg8
I0
sg9
I846
sg10
I736
sg11
I0
sba(igraph
Node
p70
(dp71
g6
I-1
sg7
I10
sg8
I0
sg9
I829
sg10
I838
sg11
I361
sba(igraph
Node
p72
(dp73
g6
I-1
sg7
I10
sg8
I0
sg9
I749
sg10
I858
sg11
I361
sba(igraph
Node
p74
(dp75
g6
I12
sg7
I10
sg8
I0
sg9
I704
sg10
I847
sg11
I95
sba(igraph
Node
p76
(dp77
g6
I-1
sg7
I10
sg8
I0
sg9
I-1000
sg10
I-1000
sg11
I361
sba(igraph
Node
p78
(dp79
g6
I-1
sg7
I10
sg8
I0
sg9
I-1000
sg10
I-1000
sg11
I361
sba(igraph
Node
p80
(dp81
g6
I-1
sg7
I10
sg8
I0
sg9
I564
sg10
I591
sg11
I361
sba(igraph
Node
p82
(dp83
g6
I-1
sg7
I10
sg8
I0
sg9
I630
sg10
I779
sg11
I361
sba(igraph
Node
p84
(dp85
g6
I-1
sg7
I10
sg8
I0
sg9
I516
sg10
I634
sg11
I361
sba(igraph
Node
p86
(dp87
g6
I-1
sg7
I10
sg8
I0
sg9
I621
sg10
I94
sg11
I361
sba(igraph
Node
p88
(dp89
g6
I-1
sg7
I10
sg8
I0
sg9
I474
sg10
I583
sg11
I361
sba(igraph
Node
p90
(dp91
g6
I7
sg7
I10
sg8
I0
sg9
I458
sg10
I570
sg11
I80
sba(igraph
Node
p92
(dp93
g6
I-1
sg7
I10
sg8
I0
sg9
I272
sg10
I741
sg11
I361
sba(igraph
Node
p94
(dp95
g6
I8
sg7
I10
sg8
I0
sg9
I290
sg10
I772
sg11
I-44
sba(igraph
Node
p96
(dp97
g6
I4
sg7
I10
sg8
I0
sg9
I211
sg10
I803
sg11
I70
sba(igraph
Node
p98
(dp99
g6
I-1
sg7
I10
sg8
I0
sg9
I267
sg10
I703
sg11
I361
sba(igraph
Node
p100
(dp101
g6
I3
sg7
I10
sg8
I0
sg9
I222
sg10
I665
sg11
I120
sba(igraph
Node
p102
(dp103
g6
I-1
sg7
I10
sg8
I0
sg9
I-1000
sg10
I-1000
sg11
I361
sba(igraph
Node
p104
(dp105
g6
I-1
sg7
I10
sg8
I0
sg9
I-1000
sg10
I-1000
sg11
I361
sba(igraph
Node
p106
(dp107
g6
I-1
sg7
I10
sg8
I0
sg9
I-1000
sg10
I-1000
sg11
I361
sba(igraph
Node
p108
(dp109
g6
I-1
sg7
I10
sg8
I0
sg9
I-1000
sg10
I-1000
sg11
I361
sbasS'links'
p110
(lp111
(igraph
Link
p112
(dp113
S'blue'
p114
I131
sS'node2direction'
p115
F80.53767779197439
sS'log'
p116
I0
sS'node1v'
p117
S'top'
p118
sS'node2v'
p119
S'bottom'
p120
sS'green'
p121
I208
sS'length'
p122
F62.968245965724655
sS'node2h'
p123
S'left'
p124
sS'logOffset'
p125
I0
sS'node1'
p126
g18
sS'node1h'
p127
S'right'
p128
sS'node2'
p129
g20
sS'node1direction'
p130
F-99.46232220802563
sS'red'
p131
I171
sba(igraph
Link
p132
(dp133
g114
I122
sg115
F102.61932229343078
sg116
I0
sg117
g118
sg119
g120
sg121
I136
sg122
F80.23091673413684
sg123
g128
sg125
I0
sg126
g20
sg127
g124
sg129
g22
sg130
F-77.38067770656923
sg131
I148
sba(igraph
Link
p134
(dp135
g114
I148
sg115
F123.43986920578224
sg116
I0
sg117
g118
sg119
g120
sg121
I194
sg122
F63.51377803280166
sg123
g128
sg125
I0
sg126
g22
sg127
g124
sg129
g24
sg130
F-56.56013079421777
sg131
I143
sba(igraph
Link
p136
(dp137
g114
I9
sg115
S'86.42366562500266'
p138
sg116
I0
sg117
g118
sg119
g120
sg121
I76
sg122
F64.1248781675256
sg123
g124
sg125
I0
sg126
g36
sg127
g128
sg129
g26
sg130
S'86'
p139
sg131
I48
sba(igraph
Link
p140
(dp141
g114
I147
sg115
F-125.57355491910316
sg116
I0
sg117
g120
sg119
g118
sg121
I233
sg122
F185.64751546950475
sg123
g128
sg125
I0
sg126
g38
sg127
g124
sg129
g16
sg130
F54.426445080896855
sg131
I211
sba(igraph
Link
p142
(dp143
g114
I207
sg115
F164.87599269168942
sg116
I0
sg117
g118
sg119
g120
sg121
I44
sg122
F38.3275357934736
sg123
g128
sg125
I0
sg126
g16
sg127
g124
sg129
g42
sg130
F-15.124007308310569
sg131
I245
sba(igraph
Link
p144
(dp145
g114
I83
sg115
F87.55295135767639
sg116
I0
sg117
g118
sg119
g120
sg121
I245
sg122
F117.10678887237921
sg123
g124
sg125
I0
sg126
g26
sg127
g128
sg129
g44
sg130
F-92.44704864232362
sg131
I242
sba(igraph
Link
p146
(dp147
g114
I122
sg115
F112.68055960702492
sg116
I0
sg117
g118
sg119
g120
sg121
I220
sg122
F83.18653737234168
sg123
g128
sg125
I0
sg126
g44
sg127
g124
sg129
g18
sg130
F-67.31944039297508
sg131
I216
sba(igraph
Link
p148
(dp149
g114
I101
sg115
F-34.734859539786285
sg116
I0
sg117
g120
sg119
g118
sg121
I148
sg122
F91.26335518706288
sg123
g124
sg125
I0
sg126
g44
sg127
g128
sg129
g42
sg130
F145.26514046021373
sg131
I8
sba(igraph
Link
p150
(dp151
g114
I177
sg123
g124
sg115
F76.50426671920418
sg116
I0
sg117
g118
sg119
g120
sg122
F31.76476034853718
sg121
I235
sg125
I0
sg126
g50
sg127
g128
sg129
g52
sg130
F-103.49573328079582
sg131
I134
sba(igraph
Link
p152
(dp153
g114
I122
sg123
g124
sg115
F88.73632744834174
sg116
I0
sg117
g118
sg119
g120
sg122
F139.51702405083043
sg121
I3
sg125
I0
sg126
g14
sg127
g128
sg129
g52
sg130
F-91.26367255165826
sg131
I57
sba(igraph
Link
p154
(dp155
g114
I174
sg123
g128
sg115
F137.4133364328499
sg116
I0
sg117
g118
sg119
g120
sg122
F189.49670181826386
sg121
I128
sg125
I0
sg126
g52
sg127
g124
sg129
g16
sg130
F-42.586663567150104
sg131
I21
sba(igraph
Link
p156
(dp157
g114
I117
sg123
g124
sg115
F-38.03458150994489
sg116
I0
sg117
g120
sg119
g118
sg122
F157.4325252290644
sg121
I12
sg125
I0
sg126
g54
sg127
g128
sg129
g24
sg130
F141.9654184900551
sg131
I139
sba(igraph
Link
p158
(dp159
g114
I134
sg123
g124
sg115
F-67.20347853205739
sg116
I0
sg117
g120
sg119
g118
sg122
F74.84650960465692
sg121
I59
sg125
I0
sg126
g54
sg127
g128
sg129
g56
sg130
F112.79652146794261
sg131
I53
sba(igraph
Link
p160
(dp161
g114
I77
sg123
g128
sg115
F-130.50284838533224
sg116
I0
sg117
g120
sg119
g118
sg122
F63.12685640834651
sg121
I200
sg125
I0
sg126
g56
sg127
g124
sg129
g58
sg130
F49.49715161466778
sg131
I62
sba(igraph
Link
p162
(dp163
g114
I226
sg123
g128
sg115
F147.9946167919165
sg116
I0
sg117
g118
sg119
g120
sg122
F47.169905660283014
sg121
I64
sg125
I0
sg126
g24
sg127
g124
sg129
g60
sg130
F-32.005383208083494
sg131
I145
sba(igraph
Link
p164
(dp165
g114
I2
sg123
g128
sg115
S'0'
p166
sg116
I0
sg117
g118
sg119
g120
sg122
F55.08175741568164
sg121
I239
sg125
I0
sg126
g60
sg127
g124
sg129
g56
sg130
S'-25'
p167
sg131
I30
sba(igraph
Link
p168
(dp169
g114
I73
sg115
F157.38013505195957
sg116
I0
sg117
g118
sg119
g120
sg121
I220
sg122
F78.0
sg123
g128
sg125
I0
sg126
g54
sg127
g124
sg129
g66
sg130
F-22.619864948040426
sg131
I210
sba(igraph
Link
p170
(dp171
g114
I133
sg115
F162.19464978548825
sg116
I0
sg117
g118
sg119
g120
sg121
I184
sg122
F143.8923208513922
sg123
g128
sg125
I0
sg126
g66
sg127
g124
sg129
g68
sg130
F-17.805350214511744
sg131
I188
sba(igraph
Link
p172
(dp173
g114
I63
sg123
g124
sg115
F60.25511870305778
sg116
I0
sg117
g118
sg119
g120
sg122
F104.80935072788114
sg121
I14
sg125
I0
sg126
g80
sg127
g128
sg129
g58
sg130
F-119.74488129694222
sg131
I213
sba(igraph
Link
p174
(dp175
g114
I139
sg123
g128
sg115
F-170.53767779197437
sg116
I0
sg117
g120
sg119
g118
sg122
F103.40696301506972
sg121
I23
sg125
I0
sg126
g68
sg127
g124
sg129
g70
sg130
F9.462322208025617
sg131
I81
sba(igraph
Link
p176
(dp177
g114
I187
sg123
g128
sg115
F-104.03624346792648
sg116
I0
sg117
g120
sg119
g118
sg122
F82.46211251235322
sg121
I31
sg125
I0
sg126
g70
sg127
g124
sg129
g72
sg130
F75.96375653207353
sg131
I233
sba(igraph
Link
p178
(dp179
g114
I16
sg123
g124
sg115
F-76.26373169437744
sg116
I0
sg117
g120
sg119
g118
sg122
F46.32493928760188
sg121
I168
sg125
I0
sg126
g72
sg127
g128
sg129
g74
sg130
F103.73626830562257
sg131
I91
sba(igraph
Link
p180
(dp181
g114
I130
sg123
g124
sg115
F-47.41950921665634
sg116
I0
sg117
g120
sg119
g118
sg122
F100.4987562112089
sg121
I121
sg125
I0
sg126
g74
sg127
g128
sg129
g82
sg130
F132.58049078334366
sg131
I249
sba(igraph
Link
p182
(dp183
g114
I96
sg123
g128
sg115
F141.82532646447558
sg116
I0
sg117
g118
sg119
g120
sg122
F184.44782460088814
sg121
I172
sg125
I0
sg126
g84
sg127
g124
sg129
g82
sg130
F-38.17467353552441
sg131
I143
sba(igraph
Link
p184
(dp185
g114
I75
sg123
g128
sg115
F-106.73875855842765
sg116
I0
sg117
g120
sg119
g118
sg122
F124.33824833895643
sg121
I102
sg125
I0
sg126
g86
sg127
g124
sg129
g38
sg130
F73.26124144157235
sg131
I65
sba(igraph
Link
p186
(dp187
g114
I70
sg123
g128
sg115
S'-105'
p188
sg116
I0
sg117
g118
sg119
g120
sg122
F115.10430052782563
sg121
I75
sg125
I0
sg126
g86
sg127
g124
sg129
g40
sg130
S'-105'
p189
sg131
I144
sba(igraph
Link
p190
(dp191
g114
I186
sg123
g128
sg115
F95.07960786001456
sg116
I0
sg117
g118
sg119
g120
sg122
F90.35485598461213
sg121
I148
sg125
I0
sg126
g88
sg127
g124
sg129
g80
sg130
F-84.92039213998542
sg131
I56
sba(igraph
Link
p192
(dp193
g114
I50
sg123
g128
sg115
F140.52754015165618
sg116
I0
sg117
g118
sg119
g120
sg122
F66.06814663663573
sg121
I214
sg125
I0
sg126
g88
sg127
g124
sg129
g84
sg130
F-39.472459848343824
sg131
I248
sba(igraph
Link
p194
(dp195
g114
I23
sg123
g128
sg115
F-131.85504253530198
sg116
I0
sg117
g120
sg119
g118
sg122
F64.44377394287208
sg121
I193
sg125
I0
sg126
g80
sg127
g124
sg129
g84
sg130
F48.144957464698024
sg131
I236
sba(igraph
Link
p196
(dp197
g114
I251
sg123
g128
sg115
F97.35237935989237
sg116
I0
sg117
g118
sg119
g120
sg122
F20.615528128088304
sg121
I244
sg125
I0
sg126
g90
sg127
g124
sg129
g88
sg130
F-82.64762064010765
sg131
I99
sba(igraph
Link
p198
(dp199
g114
I101
sg123
g128
sg115
F-132.5940294833547
sg116
I0
sg117
g120
sg119
g118
sg122
F252.65985039178662
sg121
I90
sg125
I0
sg126
g90
sg127
g124
sg129
g92
sg130
F47.405970516645304
sg131
I123
sba(igraph
Link
p200
(dp201
g114
I7
sg123
g128
sg115
F148.2405199151872
sg116
I0
sg117
g118
sg119
g120
sg122
F35.84689665786985
sg121
I56
sg125
I0
sg126
g92
sg127
g124
sg129
g94
sg130
F-31.759480084812793
sg131
I138
sba(igraph
Link
p202
(dp203
g114
I107
sg123
g124
sg115
F44.53419091723501
sg116
I0
sg117
g118
sg119
g120
sg122
F86.97700845625815
sg121
I45
sg125
I0
sg126
g96
sg127
g128
sg129
g92
sg130
F-135.465809082765
sg131
I44
sba(igraph
Link
p204
(dp205
g114
I191
sg123
g128
sg115
F-111.4252937980874
sg116
I0
sg117
g120
sg119
g118
sg122
F84.8645980371085
sg121
I112
sg125
I0
sg126
g94
sg127
g124
sg129
g96
sg130
F68.57470620191262
sg131
I38
sba(igraph
Link
p206
(dp207
g114
I63
sg123
g128
sg115
F130.71084667118097
sg116
I0
sg117
g118
sg119
g120
sg122
F58.89821729050889
sg121
I169
sg125
I0
sg126
g100
sg127
g124
sg129
g98
sg130
F-49.28915332881902
sg131
I206
sba(igraph
Link
p208
(dp209
g114
I197
sg123
S'right'
p210
sg115
S'172'
p211
sg116
I0
sg117
S'top'
p212
sg119
S'bottom'
p213
sg122
F38.3275357934736
sg121
I3
sg125
I0
sg126
g98
sg127
S'left'
p214
sg129
g92
sg130
S'-7'
p215
sg131
I197
sbasb.