(igraph
Graph
p0
(dp1
S'nodes'
p2
(lp3
(igraph
Node
p4
(dp5
S'puck'
p6
I-1
sS'radius'
p7
I10
sS'localize'
p8
I0
sS'Y'
p9
I-1000
sS'X'
p10
I-1000
sS'theta'
p11
I361
sba(igraph
Node
p12
(dp13
g6
I-1
sg7
I10
sg8
I0
sg9
I-1000
sg10
I-1000
sg11
I361
sba(igraph
Node
p14
(dp15
g6
I-1
sg7
I10
sg8
I0
sg9
I-1000
sg10
I-1000
sg11
I361
sba(igraph
Node
p16
(dp17
g6
I-1
sg7
I10
sg8
I0
sg9
I-1000
sg10
I-1000
sg11
I361
sba(igraph
Node
p18
(dp19
g6
I-1
sg7
I10
sg8
I0
sg9
I-1000
sg10
I-1000
sg11
I361
sba(igraph
Node
p20
(dp21
g6
I-1
sg7
I10
sg8
I0
sg9
I-1000
sg10
I-1000
sg11
I361
sba(igraph
Node
p22
(dp23
g6
I-1
sg7
I10
sg8
I0
sg9
I-1000
sg10
I-1000
sg11
I361
sba(igraph
Node
p24
(dp25
g6
I-1
sg7
I10
sg8
I0
sg9
I-1000
sg10
I-1000
sg11
I361
sba(igraph
Node
p26
(dp27
g6
I2
sg7
I10
sg8
I0
sg9
I806
sg10
I322
sg11
I361
sba(igraph
Node
p28
(dp29
g6
I-1
sg7
I10
sg8
I0
sg9
I-1000
sg10
I-1000
sg11
I361
sba(igraph
Node
p30
(dp31
g6
I-1
sg7
I10
sg8
I0
sg9
I-1000
sg10
I-1000
sg11
I361
sba(igraph
Node
p32
(dp33
g6
I3
sg7
I10
sg8
I0
sg9
I480
sg10
I172
sg11
I361
sba(igraph
Node
p34
(dp35
g6
I-1
sg7
I10
sg8
I0
sg9
I-1000
sg10
I-1000
sg11
I361
sba(igraph
Node
p36
(dp37
g6
I-1
sg7
I10
sg8
I0
sg9
I-1000
sg10
I-1000
sg11
I361
sba(igraph
Node
p38
(dp39
g6
I-1
sg7
I10
sg8
I0
sg9
I-1000
sg10
I-1000
sg11
I361
sba(igraph
Node
p40
(dp41
g6
I-1
sg7
I10
sg8
I0
sg9
I-1000
sg10
I-1000
sg11
I361
sba(igraph
Node
p42
(dp43
g6
I-1
sg7
I10
sg8
I0
sg9
I-1000
sg10
I-1000
sg11
I361
sba(igraph
Node
p44
(dp45
g6
I-1
sg7
I10
sg8
I0
sg9
I-1000
sg10
I-1000
sg11
I361
sba(igraph
Node
p46
(dp47
g6
I-1
sg7
I10
sg8
I0
sg9
I-1000
sg10
I-1000
sg11
I361
sba(igraph
Node
p48
(dp49
g6
I-1
sg7
I10
sg8
I0
sg9
I-1000
sg10
I-1000
sg11
I361
sba(igraph
Node
p50
(dp51
g6
I-1
sg7
I10
sg8
I0
sg9
I-1000
sg10
I-1000
sg11
I361
sba(igraph
Node
p52
(dp53
g6
I-1
sg7
I10
sg8
I0
sg9
I-1000
sg10
I-1000
sg11
I361
sba(igraph
Node
p54
(dp55
g6
I-1
sg7
I10
sg8
I0
sg9
I-1000
sg10
I-1000
sg11
I361
sba(igraph
Node
p56
(dp57
g6
I-1
sg7
I10
sg8
I0
sg9
I-1000
sg10
I-1000
sg11
I361
sba(igraph
Node
p58
(dp59
g6
I-1
sg7
I10
sg8
I0
sg9
I-1000
sg10
I-1000
sg11
I361
sba(igraph
Node
p60
(dp61
g6
I-1
sg7
I10
sg8
I0
sg9
I-1000
sg10
I-1000
sg11
I361
sba(igraph
Node
p62
(dp63
g6
I-1
sg7
I10
sg8
I0
sg9
I-1000
sg10
I-1000
sg11
I361
sba(igraph
Node
p64
(dp65
g6
I-1
sg7
I10
sg8
I0
sg9
I-1000
sg10
I-1000
sg11
I361
sba(igraph
Node
p66
(dp67
g6
I-1
sg7
I10
sg8
I0
sg9
I-1000
sg10
I-1000
sg11
I361
sba(igraph
Node
p68
(dp69
g6
I-1
sg7
I10
sg8
I0
sg9
I-1000
sg10
I-1000
sg11
I361
sba(igraph
Node
p70
(dp71
g6
I-1
sg7
I10
sg8
I0
sg9
I-1000
sg10
I-1000
sg11
I361
sba(igraph
Node
p72
(dp73
g6
I-1
sg7
I10
sg8
I0
sg9
I-1000
sg10
I-1000
sg11
I361
sba(igraph
Node
p74
(dp75
g6
I-1
sg7
I10
sg8
I0
sg9
I-1000
sg10
I-1000
sg11
I361
sba(igraph
Node
p76
(dp77
g6
I-1
sg7
I10
sg8
I0
sg9
I-1000
sg10
I-1000
sg11
I361
sba(igraph
Node
p78
(dp79
g6
I-1
sg7
I10
sg8
I0
sg9
I660
sg10
I119
sg11
I361
sba(igraph
Node
p80
(dp81
g6
I-1
sg7
I10
sg8
I0
sg9
I-1000
sg10
I-1000
sg11
I361
sba(igraph
Node
p82
(dp83
g6
I-1
sg7
I10
sg8
I0
sg9
I-1000
sg10
I-1000
sg11
I361
sba(igraph
Node
p84
(dp85
g6
I-1
sg7
I10
sg8
I0
sg9
I-1000
sg10
I-1000
sg11
I361
sba(igraph
Node
p86
(dp87
g6
I-1
sg7
I10
sg8
I0
sg9
I-1000
sg10
I-1000
sg11
I361
sba(igraph
Node
p88
(dp89
g6
I-1
sg7
I10
sg8
I0
sg9
I-1000
sg10
I-1000
sg11
I361
sba(igraph
Node
p90
(dp91
g6
I-1
sg7
I10
sg8
I0
sg9
I-1000
sg10
I-1000
sg11
I361
sba(igraph
Node
p92
(dp93
g6
I-1
sg7
I10
sg8
I0
sg9
I-1000
sg10
I-1000
sg11
I361
sba(igraph
Node
p94
(dp95
g6
I-1
sg7
I10
sg8
I0
sg9
I-1000
sg10
I-1000
sg11
I361
sba(igraph
Node
p96
(dp97
g6
I-1
sg7
I10
sg8
I0
sg9
I-1000
sg10
I-1000
sg11
I361
sba(igraph
Node
p98
(dp99
g6
I-1
sg7
I10
sg8
I0
sg9
I-1000
sg10
I-1000
sg11
I361
sba(igraph
Node
p100
(dp101
g6
I-1
sg7
I10
sg8
I0
sg9
I118
sg10
I538
sg11
I361
sba(igraph
Node
p102
(dp103
g6
I-1
sg7
I10
sg8
I0
sg9
I-1000
sg10
I-1000
sg11
I361
sba(igraph
Node
p104
(dp105
g6
I-1
sg7
I10
sg8
I0
sg9
I-1000
sg10
I-1000
sg11
I361
sba(igraph
Node
p106
(dp107
g6
I-1
sg7
I10
sg8
I0
sg9
I-1000
sg10
I-1000
sg11
I361
sba(igraph
Node
p108
(dp109
g6
I-1
sg7
I10
sg8
I0
sg9
I-1000
sg10
I-1000
sg11
I361
sba(igraph
Node
p110
(dp111
g6
I-1
sg7
I10
sg8
I0
sg9
I592
sg10
I510
sg11
I361
sba(igraph
Node
p112
(dp113
g6
I-1
sg7
I10
sg8
I0
sg9
I272
sg10
I451
sg11
I361
sba(igraph
Node
p114
(dp115
g6
I-1
sg7
I10
sg8
I0
sg9
I286
sg10
I444
sg11
I361
sba(igraph
Node
p116
(dp117
g6
I-1
sg7
I10
sg8
I0
sg9
I294
sg10
I437
sg11
I361
sba(igraph
Node
p118
(dp119
g6
I-1
sg7
I10
sg8
I0
sg9
I307
sg10
I426
sg11
I361
sba(igraph
Node
p120
(dp121
g6
I-1
sg7
I10
sg8
I0
sg9
I-1000
sg10
I-1000
sg11
I361
sba(igraph
Node
p122
(dp123
g6
I-1
sg7
I10
sg8
I0
sg9
I-1000
sg10
I-1000
sg11
I361
sba(igraph
Node
p124
(dp125
g6
I-1
sg7
I10
sg8
I0
sg9
I-1000
sg10
I-1000
sg11
I361
sba(igraph
Node
p126
(dp127
g6
I-1
sg7
I10
sg8
I0
sg9
I-1000
sg10
I-1000
sg11
I361
sba(igraph
Node
p128
(dp129
g6
I-1
sg7
I10
sg8
I0
sg9
I120
sg10
I121
sg11
I361
sbasS'pucks'
p130
(lp131
sS'links'
p132
(lp133
(igraph
Link
p134
(dp135
S'blue'
p136
I96
sS'node2h'
p137
S'right'
p138
sS'node2direction'
p139
F114.70823233200596
sS'log'
p140
I0
sS'node1v'
p141
S'top'
p142
sS'node2v'
p143
S'bottom'
p144
sS'length'
p145
F358.85373064801763
sS'green'
p146
I89
sS'logOffset'
p147
I0
sS'node1'
p148
g32
sS'node1h'
p149
S'left'
p150
sS'node2'
p151
g26
sS'node1direction'
p152
F-65.29176766799404
sS'red'
p153
I74
sba(igraph
Link
p154
(dp155
g136
I20
sg137
S'left'
p156
sg139
F38.137806484334725
sg140
I0
sg141
S'top'
p157
sg143
S'bottom'
p158
sg145
F514.78150704935
sg146
I143
sg147
I0
sg148
g100
sg149
S'right'
p159
sg151
g32
sg152
F-141.8621935156653
sg153
I168
sba(igraph
Link
p160
(dp161
g136
I253
sg137
S'right'
p162
sg139
F-91.93493230955276
sg140
I0
sg141
S'bottom'
p163
sg143
S'top'
p164
sg145
F417.0047961354881
sg146
I63
sg153
I132
sg152
F88.06506769044724
sg148
g128
sg149
S'left'
p165
sg151
g100
sg147
I0
sbasb.