(igraph
Graph
p0
(dp1
S'nodes'
p2
(lp3
(igraph
Node
p4
(dp5
S'puck'
p6
I-1
sS'radius'
p7
I10
sS'localize'
p8
I0
sS'Y'
p9
I-1000
sS'X'
p10
I-1000
sS'theta'
p11
I361
sba(igraph
Node
p12
(dp13
g6
I-1
sg7
I10
sg8
I0
sg9
I-1000
sg10
I-1000
sg11
I361
sba(igraph
Node
p14
(dp15
g6
I-1
sg7
I10
sg8
I0
sg9
I-1000
sg10
I-1000
sg11
I361
sba(igraph
Node
p16
(dp17
g6
I-1
sg7
I10
sg8
I0
sg9
I-1000
sg10
I-1000
sg11
I361
sba(igraph
Node
p18
(dp19
g6
I-1
sg7
I10
sg8
I0
sg9
I-1000
sg10
I-1000
sg11
I361
sba(igraph
Node
p20
(dp21
g6
I-1
sg7
I10
sg8
I0
sg9
I-1000
sg10
I-1000
sg11
I361
sba(igraph
Node
p22
(dp23
g6
I-1
sg7
I10
sg8
I0
sg9
I-1000
sg10
I-1000
sg11
I361
sba(igraph
Node
p24
(dp25
g6
I-1
sg7
I10
sg8
I0
sg9
I-1000
sg10
I-1000
sg11
I361
sba(igraph
Node
p26
(dp27
g6
I2
sg7
I10
sg8
I0
sg9
I806
sg10
I322
sg11
I361
sba(igraph
Node
p28
(dp29
g6
I-1
sg7
I10
sg8
I0
sg9
I-1000
sg10
I-1000
sg11
I361
sba(igraph
Node
p30
(dp31
g6
I-1
sg7
I10
sg8
I0
sg9
I-1000
sg10
I-1000
sg11
I361
sba(igraph
Node
p32
(dp33
g6
I3
sg7
I10
sg8
I0
sg9
I480
sg10
I172
sg11
I361
sba(igraph
Node
p34
(dp35
g6
I-1
sg7
I10
sg8
I0
sg9
I-1000
sg10
I-1000
sg11
I361
sba(igraph
Node
p36
(dp37
g6
I-1
sg7
I10
sg8
I0
sg9
I-1000
sg10
I-1000
sg11
I361
sba(igraph
Node
p38
(dp39
g6
I-1
sg7
I10
sg8
I0
sg9
I-1000
sg10
I-1000
sg11
I361
sba(igraph
Node
p40
(dp41
g6
I-1
sg7
I10
sg8
I0
sg9
I-1000
sg10
I-1000
sg11
I361
sba(igraph
Node
p42
(dp43
g6
I-1
sg7
I10
sg8
I0
sg9
I-1000
sg10
I-1000
sg11
I361
sba(igraph
Node
p44
(dp45
g6
I-1
sg7
I10
sg8
I0
sg9
I-1000
sg10
I-1000
sg11
I361
sba(igraph
Node
p46
(dp47
g6
I-1
sg7
I10
sg8
I0
sg9
I-1000
sg10
I-1000
sg11
I361
sba(igraph
Node
p48
(dp49
g6
I-1
sg7
I10
sg8
I0
sg9
I-1000
sg10
I-1000
sg11
I361
sba(igraph
Node
p50
(dp51
g6
I-1
sg7
I10
sg8
I0
sg9
I-1000
sg10
I-1000
sg11
I361
sba(igraph
Node
p52
(dp53
g6
I-1
sg7
I10
sg8
I0
sg9
I-1000
sg10
I-1000
sg11
I361
sba(igraph
Node
p54
(dp55
g6
I-1
sg7
I10
sg8
I0
sg9
I-1000
sg10
I-1000
sg11
I361
sba(igraph
Node
p56
(dp57
g6
I-1
sg7
I10
sg8
I0
sg9
I-1000
sg10
I-1000
sg11
I361
sba(igraph
Node
p58
(dp59
g6
I-1
sg7
I10
sg8
I0
sg9
I-1000
sg10
I-1000
sg11
I361
sba(igraph
Node
p60
(dp61
g6
I-1
sg7
I10
sg8
I0
sg9
I-1000
sg10
I-1000
sg11
I361
sba(igraph
Node
p62
(dp63
g6
I-1
sg7
I10
sg8
I0
sg9
I-1000
sg10
I-1000
sg11
I361
sba(igraph
Node
p64
(dp65
g6
I-1
sg7
I10
sg8
I0
sg9
I-1000
sg10
I-1000
sg11
I361
sba(igraph
Node
p66
(dp67
g6
I-1
sg7
I10
sg8
I0
sg9
I-1000
sg10
I-1000
sg11
I361
sba(igraph
Node
p68
(dp69
g6
I-1
sg7
I10
sg8
I0
sg9
I-1000
sg10
I-1000
sg11
I361
sba(igraph
Node
p70
(dp71
g6
I-1
sg7
I10
sg8
I0
sg9
I-1000
sg10
I-1000
sg11
I361
sba(igraph
Node
p72
(dp73
g6
I-1
sg7
I10
sg8
I0
sg9
I-1000
sg10
I-1000
sg11
I361
sba(igraph
Node
p74
(dp75
g6
I-1
sg7
I10
sg8
I0
sg9
I-1000
sg10
I-1000
sg11
I361
sba(igraph
Node
p76
(dp77
g6
I-1
sg7
I10
sg8
I0
sg9
I-1000
sg10
I-1000
sg11
I361
sba(igraph
Node
p78
(dp79
g6
I-1
sg7
I10
sg8
I0
sg9
I660
sg10
I119
sg11
I361
sba(igraph
Node
p80
(dp81
g6
I-1
sg7
I10
sg8
I0
sg9
I-1000
sg10
I-1000
sg11
I361
sba(igraph
Node
p82
(dp83
g6
I-1
sg7
I10
sg8
I0
sg9
I-1000
sg10
I-1000
sg11
I361
sba(igraph
Node
p84
(dp85
g6
I-1
sg7
I10
sg8
I0
sg9
I-1000
sg10
I-1000
sg11
I361
sba(igraph
Node
p86
(dp87
g6
I-1
sg7
I10
sg8
I0
sg9
I-1000
sg10
I-1000
sg11
I361
sba(igraph
Node
p88
(dp89
g6
I-1
sg7
I10
sg8
I0
sg9
I-1000
sg10
I-1000
sg11
I361
sba(igraph
Node
p90
(dp91
g6
I-1
sg7
I10
sg8
I0
sg9
I-1000
sg10
I-1000
sg11
I361
sba(igraph
Node
p92
(dp93
g6
I-1
sg7
I10
sg8
I0
sg9
I-1000
sg10
I-1000
sg11
I361
sba(igraph
Node
p94
(dp95
g6
I-1
sg7
I10
sg8
I0
sg9
I-1000
sg10
I-1000
sg11
I361
sba(igraph
Node
p96
(dp97
g6
I-1
sg7
I10
sg8
I0
sg9
I-1000
sg10
I-1000
sg11
I361
sba(igraph
Node
p98
(dp99
g6
I-1
sg7
I10
sg8
I0
sg9
I-1000
sg10
I-1000
sg11
I361
sba(igraph
Node
p100
(dp101
g6
I-1
sg7
I10
sg8
I0
sg9
I117
sg10
I499
sg11
I361
sba(igraph
Node
p102
(dp103
g6
I-1
sg7
I10
sg8
I0
sg9
I-1000
sg10
I-1000
sg11
I361
sba(igraph
Node
p104
(dp105
g6
I-1
sg7
I10
sg8
I0
sg9
I-1000
sg10
I-1000
sg11
I361
sba(igraph
Node
p106
(dp107
g6
I-1
sg7
I10
sg8
I0
sg9
I179
sg10
I181
sg11
I361
sbasS'pucks'
p108
(lp109
sS'links'
p110
(lp111
(igraph
Link
p112
(dp113
S'blue'
p114
I96
sS'node2direction'
p115
F114.70823233200596
sS'log'
p116
I0
sS'node1v'
p117
S'top'
p118
sS'node2v'
p119
S'bottom'
p120
sS'green'
p121
I89
sS'length'
p122
F358.85373064801763
sS'node2h'
p123
S'right'
p124
sS'logOffset'
p125
I0
sS'node1'
p126
g32
sS'node1h'
p127
S'left'
p128
sS'node2'
p129
g26
sS'node1direction'
p130
F-65.29176766799404
sS'red'
p131
I74
sba(igraph
Link
p132
(dp133
g114
I20
sg115
F38.137806484334725
sg116
I0
sg117
S'top'
p134
sg119
S'bottom'
p135
sg121
I143
sg122
F488.5672932155815
sg123
S'left'
p136
sg125
I0
sg126
g100
sg127
S'right'
p137
sg129
g32
sg130
F-141.8621935156653
sg131
I168
sba(igraph
Link
p138
(dp139
g114
I15
sg123
S'right'
p140
sg115
F-168.9675267591023
sg116
I0
sg117
S'bottom'
p141
sg119
S'top'
p142
sg122
F323.9876540857691
sg121
I240
sg131
I66
sg130
F11.032473240897692
sg126
g106
sg127
S'left'
p143
sg129
g100
sg125
I0
sbasb.