(igraph
Graph
p0
(dp1
S'nodes'
p2
(lp3
(igraph
Node
p4
(dp5
S'puck'
p6
I-1
sS'radius'
p7
I10
sS'localize'
p8
I0
sS'Y'
p9
I-1000
sS'X'
p10
I-1000
sS'theta'
p11
I361
sba(igraph
Node
p12
(dp13
g6
I1
sg7
I10
sg8
I0
sg9
I205
sg10
I81
sg11
I65
sba(igraph
Node
p14
(dp15
g6
I9
sg7
I10
sg8
I0
sg9
I499
sg10
I131
sg11
I-95
sba(igraph
Node
p16
(dp17
g6
I13
sg7
I7
sg8
I0
sg9
I724
sg10
I159
sg11
I-109
sba(igraph
Node
p18
(dp19
g6
I-1
sg7
I10
sg8
I0
sg9
I644
sg10
I127
sg11
I361
sba(igraph
Node
p20
(dp21
g6
I6
sg7
I10
sg8
I0
sg9
I359
sg10
I263
sg11
I0
sba(igraph
Node
p22
(dp23
g6
I5
sg7
I10
sg8
I0
sg9
I361
sg10
I226
sg11
I180
sba(igraph
Node
p24
(dp25
g6
I-1
sg7
I10
sg8
I0
sg9
I364
sg10
I334
sg11
I361
sba(igraph
Node
p26
(dp27
g6
I-1
sg7
I5
sg8
I0
sg9
I267
sg10
I349
sg11
I361
sba(igraph
Node
p28
(dp29
g6
I2
sg7
I10
sg8
I0
sg9
I216
sg10
I341
sg11
I80
sba(igraph
Node
p30
(dp31
g6
I10
sg7
I10
sg8
I0
sg9
I498
sg10
I354
sg11
I-87
sba(igraph
Node
p32
(dp33
g6
I-1
sg7
I10
sg8
I0
sg9
I-1000
sg10
I-1000
sg11
I361
sba(igraph
Node
p34
(dp35
g6
I-1
sg7
I10
sg8
I0
sg9
I630
sg10
I375
sg11
I361
sba(igraph
Node
p36
(dp37
g6
I11
sg7
I7
sg8
I0
sg9
I674
sg10
I518
sg11
I45
sba(igraph
Node
p38
(dp39
g6
I15
sg7
I10
sg8
I0
sg9
I775
sg10
I524
sg11
I-40
sba(igraph
Node
p40
(dp41
g6
I-1
sg7
I10
sg8
I0
sg9
I729
sg10
I426
sg11
I361
sba(igraph
Node
p42
(dp43
g6
I-1
sg7
I10
sg8
I0
sg9
I594
sg10
I585
sg11
I361
sba(igraph
Node
p44
(dp45
g6
I7
sg7
I10
sg8
I0
sg9
I480
sg10
I593
sg11
I90
sba(igraph
Node
p46
(dp47
g6
I8
sg7
I10
sg8
I0
sg9
I292
sg10
I767
sg11
I-45
sba(igraph
Node
p48
(dp49
g6
I-1
sg7
I10
sg8
I0
sg9
I-1000
sg10
I-1000
sg11
I361
sba(igraph
Node
p50
(dp51
g6
I16
sg7
I10
sg8
I0
sg9
I842
sg10
I738
sg11
I0
sba(igraph
Node
p52
(dp53
g6
I12
sg7
I10
sg8
I0
sg9
I707
sg10
I840
sg11
I90
sba(igraph
Node
p54
(dp55
g6
I-1
sg7
I10
sg8
I0
sg9
I840
sg10
I839
sg11
I361
sba(igraph
Node
p56
(dp57
g6
I3
sg7
I10
sg8
I0
sg9
I214
sg10
I660
sg11
I125
sba(igraph
Node
p58
(dp59
g6
I4
sg7
I10
sg8
I0
sg9
I209
sg10
I795
sg11
I60
sbasS'pucks'
p60
(lp61
sS'links'
p62
(lp63
(igraph
Link
p64
(dp65
S'blue'
p66
I105
sS'node2h'
p67
S'right'
p68
sS'node2direction'
p69
F-91.58017247280002
sS'log'
p70
I0
sS'node1v'
p71
S'bottom'
p72
sS'node2v'
p73
S'top'
p74
sS'length'
p75
F145.0551619212498
sS'green'
p76
I150
sS'logOffset'
p77
I0
sS'node1'
p78
g18
sS'node1h'
p79
S'left'
p80
sS'node2'
p81
g14
sS'node1direction'
p82
F88.41982752719998
sS'red'
p83
I173
sba(igraph
Link
p84
(dp85
g66
I239
sg67
g68
sg69
S'-109'
p86
sg70
I0
sg71
g74
sg73
g72
sg75
F86.16263691415206
sg76
I6
sg77
I0
sg78
g18
sg79
g80
sg81
g16
sg82
S'-109'
p87
sg83
I66
sba(igraph
Link
p88
(dp89
g66
I137
sg67
g68
sg69
F132.90706569471186
sg70
I0
sg71
g74
sg73
g72
sg75
F212.9812198293549
sg76
I80
sg77
I0
sg78
g12
sg79
g80
sg81
g22
sg82
F-47.09293430528815
sg83
I233
sba(igraph
Link
p90
(dp91
g66
I124
sg67
g68
sg69
F-169.11447294534128
sg70
I0
sg71
g72
sg73
g74
sg75
F37.0540146272978
sg76
I147
sg77
I0
sg78
g22
sg79
g80
sg81
g20
sg82
F10.885527054658738
sg83
I54
sba(igraph
Link
p92
(dp93
g66
I192
sg67
g80
sg69
F55.45625059223088
sg70
I0
sg71
g74
sg73
g72
sg75
F167.53805537847214
sg76
I161
sg77
I0
sg78
g22
sg79
g68
sg81
g14
sg82
F-124.54374940776913
sg83
I57
sba(igraph
Link
p94
(dp95
g66
I142
sg67
g68
sg69
S'90'
p96
sg70
I0
sg71
g74
sg73
g72
sg75
F51.62363799656123
sg76
I169
sg77
I0
sg78
g28
sg79
g80
sg81
g26
sg82
S'90'
p97
sg83
I217
sba(igraph
Link
p98
(dp99
g66
I97
sg67
g80
sg69
S'90'
p100
sg70
I0
sg71
g74
sg73
g72
sg75
F98.15294188153506
sg76
I255
sg77
I0
sg78
g26
sg79
g68
sg81
g24
sg82
S'90'
p101
sg83
I131
sba(igraph
Link
p102
(dp103
g66
I117
sg67
g80
sg69
F-5.572197803963795
sg70
I0
sg71
g72
sg73
g74
sg75
F71.17583859709697
sg76
I29
sg77
I0
sg78
g24
sg79
g68
sg81
g20
sg82
F174.4278021960362
sg83
I21
sba(igraph
Link
p104
(dp105
g66
I177
sg67
g68
sg69
S'98'
p106
sg70
I0
sg71
g74
sg73
g72
sg75
F135.4843164355196
sg76
I96
sg77
I0
sg78
g24
sg79
g80
sg81
g30
sg82
S'-81'
p107
sg83
I95
sba(igraph
Link
p108
(dp109
g66
I76
sg69
F121.80938928779315
sg70
I0
sg71
g74
sg73
g72
sg76
I150
sg75
F111.36426715962352
sg67
g68
sg77
I0
sg78
g34
sg79
g80
sg81
g40
sg82
F-58.190610712206855
sg83
I2
sba(igraph
Link
p110
(dp111
g66
I186
sg69
S'45'
p112
sg70
I0
sg71
g72
sg73
g74
sg76
I255
sg75
F107.18675291284832
sg67
g68
sg77
I0
sg78
g40
sg79
g80
sg81
g36
sg82
S'20.422333024723436'
p113
sg83
I131
sba(igraph
Link
p114
(dp115
g66
I213
sg69
F146.57518881739622
sg70
I0
sg71
g74
sg73
g72
sg76
I125
sg75
F108.25894882179487
sg67
g68
sg77
I0
sg78
g40
sg79
g80
sg81
g38
sg82
F-33.424811182603804
sg83
I220
sba(igraph
Link
p116
(dp117
g66
I241
sg69
F-81.28526712513884
sg70
I0
sg71
g72
sg73
g74
sg76
I36
sg75
F133.6600164596728
sg67
g80
sg77
I0
sg78
g34
sg79
g68
sg81
g30
sg82
F98.71473287486116
sg83
I224
sba(igraph
Link
p118
(dp119
g66
I185
sg69
S'50.053826050064366'
p120
sg70
I0
sg71
g74
sg73
g72
sg76
I106
sg75
F104.35037134576953
sg67
g80
sg77
I0
sg78
g42
sg79
g68
sg81
g36
sg82
S'45'
p121
sg83
I57
sba(igraph
Link
p122
(dp123
g66
I37
sg69
S'85.19651424093092'
p124
sg70
I0
sg71
g74
sg73
g72
sg76
I28
sg75
F114.28035701729323
sg67
g80
sg77
I0
sg78
g44
sg79
g68
sg81
g42
sg82
S'90'
p125
sg83
I77
sba(igraph
Link
p126
(dp127
g66
I27
sg69
F47.78870767984421
sg70
I0
sg71
g74
sg73
g72
sg76
I205
sg75
F256.1640099623677
sg67
g80
sg77
I0
sg78
g46
sg79
g68
sg81
g44
sg82
F-132.2112923201558
sg83
I150
sba(igraph
Link
p128
(dp129
g66
I1
sg67
g68
sg69
F162.1454516660808
sg70
I0
sg71
g74
sg73
g72
sg75
F224.24317157942625
sg76
I37
sg83
I178
sg82
F-17.854548333919233
sg78
g38
sg79
g80
sg81
g50
sg77
I0
sba(igraph
Link
p130
(dp131
g66
I3
sg67
g68
sg69
F-178.865578369023
sg70
I0
sg71
g72
sg73
g74
sg75
F101.01980003939822
sg76
I64
sg83
I111
sg82
F1.1344216309770068
sg78
g50
sg79
g80
sg81
g54
sg77
I0
sba(igraph
Link
p132
(dp133
g66
I22
sg67
g68
sg69
S'90'
p134
sg70
I0
sg71
g72
sg73
g74
sg75
F133.00375934536586
sg76
I51
sg83
I73
sg82
S'90'
p135
sg78
g54
sg79
g80
sg81
g52
sg77
I0
sba(igraph
Link
p136
(dp137
g66
I49
sg67
g68
sg69
S'125'
p138
sg70
I0
sg71
g74
sg73
g72
sg75
F132.41223508422476
sg76
I150
sg83
I110
sg82
S'125'
p139
sg78
g56
sg79
g80
sg81
g46
sg77
I0
sba(igraph
Link
p140
(dp141
g66
I102
sg67
g80
sg69
F71.35820810630067
sg70
I0
sg71
g74
sg73
g72
sg75
F87.5956619930462
sg76
I168
sg83
I130
sg82
F-108.64179189369933
sg78
g58
sg79
g68
sg81
g46
sg77
I0
sba(igraph
Link
p142
(dp143
g66
I97
sg67
g80
sg69
S'125'
p144
sg70
I0
sg71
g74
sg73
g72
sg75
F135.09256086106296
sg76
I78
sg83
I35
sg82
S'125'
p145
sg78
g58
sg79
g68
sg81
g56
sg77
I0
sbasb.