(igraph
Graph
p0
(dp1
S'nodes'
p2
(lp3
(igraph
Node
p4
(dp5
S'puck'
p6
I-1
sS'radius'
p7
I10
sS'localize'
p8
I0
sS'Y'
p9
I-1000
sS'X'
p10
I-1000
sS'theta'
p11
I361
sba(igraph
Node
p12
(dp13
g6
I-1
sg7
I10
sg8
I0
sg9
I-1000
sg10
I-1000
sg11
I361
sba(igraph
Node
p14
(dp15
g6
I-1
sg7
I10
sg8
I0
sg9
I-1000
sg10
I-1000
sg11
I361
sba(igraph
Node
p16
(dp17
g6
I-1
sg7
I10
sg8
I0
sg9
I-1000
sg10
I-1000
sg11
I361
sba(igraph
Node
p18
(dp19
g6
I-1
sg7
I10
sg8
I0
sg9
I-1000
sg10
I-1000
sg11
I361
sba(igraph
Node
p20
(dp21
g6
I-1
sg7
I10
sg8
I0
sg9
I-1000
sg10
I-1000
sg11
I361
sba(igraph
Node
p22
(dp23
g6
I-1
sg7
I10
sg8
I0
sg9
I-1000
sg10
I-1000
sg11
I361
sba(igraph
Node
p24
(dp25
g6
I-1
sg7
I10
sg8
I0
sg9
I-1000
sg10
I-1000
sg11
I361
sba(igraph
Node
p26
(dp27
g6
I2
sg7
I10
sg8
I0
sg9
I806
sg10
I322
sg11
I361
sba(igraph
Node
p28
(dp29
g6
I-1
sg7
I10
sg8
I0
sg9
I-1000
sg10
I-1000
sg11
I361
sba(igraph
Node
p30
(dp31
g6
I-1
sg7
I10
sg8
I0
sg9
I-1000
sg10
I-1000
sg11
I361
sba(igraph
Node
p32
(dp33
g6
I3
sg7
I10
sg8
I0
sg9
I480
sg10
I172
sg11
I361
sba(igraph
Node
p34
(dp35
g6
I-1
sg7
I10
sg8
I0
sg9
I-1000
sg10
I-1000
sg11
I361
sba(igraph
Node
p36
(dp37
g6
I-1
sg7
I10
sg8
I0
sg9
I-1000
sg10
I-1000
sg11
I361
sba(igraph
Node
p38
(dp39
g6
I-1
sg7
I10
sg8
I0
sg9
I-1000
sg10
I-1000
sg11
I361
sba(igraph
Node
p40
(dp41
g6
I-1
sg7
I10
sg8
I0
sg9
I-1000
sg10
I-1000
sg11
I361
sba(igraph
Node
p42
(dp43
g6
I-1
sg7
I10
sg8
I0
sg9
I-1000
sg10
I-1000
sg11
I361
sba(igraph
Node
p44
(dp45
g6
I-1
sg7
I10
sg8
I0
sg9
I-1000
sg10
I-1000
sg11
I361
sba(igraph
Node
p46
(dp47
g6
I-1
sg7
I10
sg8
I0
sg9
I-1000
sg10
I-1000
sg11
I361
sba(igraph
Node
p48
(dp49
g6
I-1
sg7
I10
sg8
I0
sg9
I-1000
sg10
I-1000
sg11
I361
sba(igraph
Node
p50
(dp51
g6
I-1
sg7
I10
sg8
I0
sg9
I-1000
sg10
I-1000
sg11
I361
sba(igraph
Node
p52
(dp53
g6
I-1
sg7
I10
sg8
I0
sg9
I-1000
sg10
I-1000
sg11
I361
sba(igraph
Node
p54
(dp55
g6
I-1
sg7
I10
sg8
I0
sg9
I-1000
sg10
I-1000
sg11
I361
sba(igraph
Node
p56
(dp57
g6
I-1
sg7
I10
sg8
I0
sg9
I-1000
sg10
I-1000
sg11
I361
sba(igraph
Node
p58
(dp59
g6
I-1
sg7
I10
sg8
I0
sg9
I-1000
sg10
I-1000
sg11
I361
sba(igraph
Node
p60
(dp61
g6
I-1
sg7
I10
sg8
I0
sg9
I-1000
sg10
I-1000
sg11
I361
sba(igraph
Node
p62
(dp63
g6
I-1
sg7
I10
sg8
I0
sg9
I-1000
sg10
I-1000
sg11
I361
sba(igraph
Node
p64
(dp65
g6
I-1
sg7
I10
sg8
I0
sg9
I-1000
sg10
I-1000
sg11
I361
sba(igraph
Node
p66
(dp67
g6
I-1
sg7
I10
sg8
I0
sg9
I-1000
sg10
I-1000
sg11
I361
sba(igraph
Node
p68
(dp69
g6
I-1
sg7
I10
sg8
I0
sg9
I-1000
sg10
I-1000
sg11
I361
sba(igraph
Node
p70
(dp71
g6
I-1
sg7
I10
sg8
I0
sg9
I-1000
sg10
I-1000
sg11
I361
sba(igraph
Node
p72
(dp73
g6
I-1
sg7
I10
sg8
I0
sg9
I-1000
sg10
I-1000
sg11
I361
sba(igraph
Node
p74
(dp75
g6
I-1
sg7
I10
sg8
I0
sg9
I-1000
sg10
I-1000
sg11
I361
sba(igraph
Node
p76
(dp77
g6
I-1
sg7
I10
sg8
I0
sg9
I-1000
sg10
I-1000
sg11
I361
sba(igraph
Node
p78
(dp79
g6
I-1
sg7
I10
sg8
I0
sg9
I660
sg10
I119
sg11
I361
sba(igraph
Node
p80
(dp81
g6
I-1
sg7
I10
sg8
I0
sg9
I-1000
sg10
I-1000
sg11
I361
sba(igraph
Node
p82
(dp83
g6
I-1
sg7
I10
sg8
I0
sg9
I-1000
sg10
I-1000
sg11
I361
sba(igraph
Node
p84
(dp85
g6
I-1
sg7
I10
sg8
I0
sg9
I-1000
sg10
I-1000
sg11
I361
sba(igraph
Node
p86
(dp87
g6
I-1
sg7
I10
sg8
I0
sg9
I-1000
sg10
I-1000
sg11
I361
sba(igraph
Node
p88
(dp89
g6
I-1
sg7
I10
sg8
I0
sg9
I-1000
sg10
I-1000
sg11
I361
sba(igraph
Node
p90
(dp91
g6
I-1
sg7
I10
sg8
I0
sg9
I-1000
sg10
I-1000
sg11
I361
sba(igraph
Node
p92
(dp93
g6
I-1
sg7
I10
sg8
I0
sg9
I-1000
sg10
I-1000
sg11
I361
sba(igraph
Node
p94
(dp95
g6
I-1
sg7
I10
sg8
I0
sg9
I-1000
sg10
I-1000
sg11
I361
sba(igraph
Node
p96
(dp97
g6
I-1
sg7
I10
sg8
I0
sg9
I-1000
sg10
I-1000
sg11
I361
sba(igraph
Node
p98
(dp99
g6
I-1
sg7
I10
sg8
I0
sg9
I-1000
sg10
I-1000
sg11
I361
sba(igraph
Node
p100
(dp101
g6
I-1
sg7
I10
sg8
I0
sg9
I118
sg10
I538
sg11
I361
sba(igraph
Node
p102
(dp103
g6
I-1
sg7
I10
sg8
I0
sg9
I-1000
sg10
I-1000
sg11
I361
sba(igraph
Node
p104
(dp105
g6
I-1
sg7
I10
sg8
I0
sg9
I-1000
sg10
I-1000
sg11
I361
sba(igraph
Node
p106
(dp107
g6
I-1
sg7
I100
sg8
I0
sg9
I251
sg10
I257
sg11
I361
sba(igraph
Node
p108
(dp109
g6
I-1
sg7
I10
sg8
I0
sg9
I-1000
sg10
I-1000
sg11
I361
sba(igraph
Node
p110
(dp111
g6
I-1
sg7
I10
sg8
I0
sg9
I-1000
sg10
I-1000
sg11
I361
sba(igraph
Node
p112
(dp113
g6
I-1
sg7
I10
sg8
I0
sg9
I592
sg10
I510
sg11
I361
sba(igraph
Node
p114
(dp115
g6
I-1
sg7
I10
sg8
I0
sg9
I272
sg10
I451
sg11
I361
sba(igraph
Node
p116
(dp117
g6
I-1
sg7
I10
sg8
I0
sg9
I286
sg10
I444
sg11
I361
sba(igraph
Node
p118
(dp119
g6
I-1
sg7
I10
sg8
I0
sg9
I294
sg10
I437
sg11
I361
sba(igraph
Node
p120
(dp121
g6
I-1
sg7
I10
sg8
I0
sg9
I307
sg10
I426
sg11
I361
sba(igraph
Node
p122
(dp123
g6
I-1
sg7
I10
sg8
I0
sg9
I-1000
sg10
I-1000
sg11
I361
sba(igraph
Node
p124
(dp125
g6
I-1
sg7
I10
sg8
I0
sg9
I-1000
sg10
I-1000
sg11
I361
sbasS'pucks'
p126
(lp127
sS'links'
p128
(lp129
(igraph
Link
p130
(dp131
S'blue'
p132
I96
sS'node2direction'
p133
F114.70823233200596
sS'log'
p134
I0
sS'node1v'
p135
S'top'
p136
sS'node2v'
p137
S'bottom'
p138
sS'green'
p139
I89
sS'length'
p140
F358.85373064801763
sS'node2h'
p141
S'right'
p142
sS'logOffset'
p143
I0
sS'node1'
p144
g32
sS'node1h'
p145
S'left'
p146
sS'node2'
p147
g26
sS'node1direction'
p148
F-65.29176766799404
sS'red'
p149
I74
sba(igraph
Link
p150
(dp151
g132
I20
sg133
F38.137806484334725
sg134
I0
sg135
S'top'
p152
sg137
S'bottom'
p153
sg139
I143
sg140
F514.78150704935
sg141
S'left'
p154
sg143
I0
sg144
g100
sg145
S'right'
p155
sg147
g32
sg148
F-141.8621935156653
sg149
I168
sba(igraph
Link
p156
(dp157
g132
I15
sg141
g155
sg133
F-168.9675267591023
sg134
I0
sg135
g153
sg137
g152
sg140
F276.6224864323217
sg139
I240
sg143
I0
sg144
g106
sg145
g154
sg147
g100
sg148
F11.032473240897692
sg149
I66
sbasb.